ccollections
defaultdict
p0
(c__builtin__
int
p1
tp2
Rp3
((I23
I38
I25
I-1
tp4
I0
tp5
I0
s((I15
I46
I24
I-2
tp6
I1
tp7
I0
s((I26
I5
I18
I0
tp8
I1
tp9
F0.0
s((I23
I37
I19
I-1
tp10
I0
tp11
F0.0
s((I21
I14
I18
I-3
tp12
I0
tp13
F0.0
s((I28
I30
I17
I-1
tp14
I0
tp15
I0
s((I23
I37
I21
I-2
tp16
I1
tp17
F0.0
s((I29
I5
I24
I-3
tp18
I0
tp19
I0
s((I12
I33
I24
I-1
tp20
I0
tp21
I0
s((I24
I2
I17
I0
tp22
I1
tp23
F0.0
s((I23
I35
I19
I1
tp24
I0
tp25
F0.0
s((I22
I24
I22
I-3
tp26
I0
tp27
F0.0
s((I16
I45
I25
I-2
tp28
I0
tp29
I0
s((I17
I36
I24
I-1
tp30
I0
tp31
I0
s((I23
I19
I18
I5
tp32
I1
tp33
I0
s((I32
I30
I25
I-3
tp34
I0
tp35
F0.0
s((I26
I11
I17
I3
tp36
I0
tp37
F0.0
s((I30
I31
I21
I-3
tp38
I1
tp39
F0.0
s((I18
I28
I19
I-3
tp40
I1
tp41
I0
s((I16
I45
I24
I-2
tp42
I1
tp43
I0
s((I30
I4
I24
I-1
tp44
I1
tp45
I0
s((I12
I40
I18
I4
tp46
I1
tp47
F0.0
s((I17
I39
I22
I-3
tp48
I0
tp49
F0.0
s((I24
I36
I18
I-4
tp50
I1
tp51
F0.0
s((I26
I19
I17
I5
tp52
I0
tp53
I0
s((I16
I39
I24
I-3
tp54
I1
tp55
I0
s((I17
I10
I26
I5
tp56
I0
tp57
F0.0
s((I29
I12
I24
I0
tp58
I1
tp59
F0.0
s((I31
I4
I24
I0
tp60
I1
tp61
F0.0
s((I31
I15
I24
I-3
tp62
I1
tp63
F0.0
s((I23
I16
I25
I-3
tp64
I1
tp65
I0
s((I33
I27
I25
I0
tp66
I0
tp67
F0.0
s((I8
I5
I26
I5
tp68
I0
tp69
F0.0
s((I26
I25
I24
I-3
tp70
I1
tp71
I0
s((I21
I35
I26
I-3
tp72
I0
tp73
I0
s((I14
I17
I21
I5
tp74
I0
tp75
I0
s((I15
I43
I17
I1
tp76
I1
tp77
F0.0
s((I32
I25
I17
I0
tp78
I0
tp79
I0
s((I25
I36
I25
I-3
tp80
I1
tp81
F0.0
s((I24
I36
I21
I-4
tp82
I1
tp83
F0.0
s((I28
I18
I24
I-3
tp84
I1
tp85
F0.0
s(g66
I1
tp86
I0
s((I16
I44
I24
I0
tp87
I1
tp88
I0
s((I16
I30
I19
I5
tp89
I1
tp90
F0.0
s((I22
I20
I24
I-3
tp91
I1
tp92
F0.0
s((I30
I7
I24
I-3
tp93
I0
tp94
F0.0
s((I18
I19
I21
I5
tp95
I1
tp96
I0
s((I22
I39
I19
I-3
tp97
I0
tp98
F0.0
s((I29
I33
I25
I-3
tp99
I0
tp100
I0
s((I15
I46
I18
I-2
tp101
I1
tp102
I0
s((I21
I11
I19
I5
tp103
I1
tp104
F0.0
s((I16
I14
I21
I-3
tp105
I1
tp106
I0
s((I24
I35
I17
I-3
tp107
I1
tp108
F0.0
s((I19
I23
I24
I0
tp109
I1
tp110
F0.0
s((I24
I28
I26
I2
tp111
I1
tp112
F0.0
s((I24
I8
I19
I-4
tp113
I0
tp114
I0
s((I23
I4
I17
I-3
tp115
I0
tp116
F0.0
s((I16
I13
I18
I2
tp117
I0
tp118
F0.0
s((I26
I10
I25
I-3
tp119
I0
tp120
I0
s((I22
I2
I18
I-3
tp121
I0
tp122
I0
s((I16
I43
I24
I1
tp123
I1
tp124
I0
s((I28
I10
I24
I2
tp125
I0
tp126
I0
s((I32
I11
I22
I0
tp127
I1
tp128
F0.0
s((I14
I14
I18
I5
tp129
I0
tp130
I0
s((I27
I24
I21
I4
tp131
I0
tp132
F0.0
s((I25
I16
I19
I0
tp133
I1
tp134
I0
s((I30
I2
I19
I-1
tp135
I0
tp136
I0
s((I15
I20
I18
I-3
tp137
I1
tp138
F0.0
s((I15
I28
I18
I-3
tp139
I0
tp140
F0.0
s((I30
I5
I25
I0
tp141
I0
tp142
F0.0
s((I27
I34
I21
I-4
tp143
I1
tp144
F0.0
s(g95
I0
tp145
F0.0
s((I22
I40
I25
I-3
tp146
I1
tp147
I0
s((I30
I24
I25
I3
tp148
I1
tp149
I0
s((I18
I40
I26
I-3
tp150
I1
tp151
I0
s((I30
I8
I22
I3
tp152
I0
tp153
I0
s((I23
I13
I25
I0
tp154
I0
tp155
I0
s((I20
I34
I24
I-3
tp156
I0
tp157
I0
s((I25
I19
I22
I-3
tp158
I0
tp159
I0
s((I13
I31
I18
I3
tp160
I1
tp161
F0.0
s((I29
I4
I19
I-4
tp162
I1
tp163
I0
s((I30
I2
I24
I2
tp164
I1
tp165
I0
s((I27
I21
I18
I5
tp166
I1
tp167
I0
s((I16
I44
I18
I0
tp168
I1
tp169
F0.0
s((I18
I10
I18
I-4
tp170
I1
tp171
I0
s((I19
I32
I22
I-3
tp172
I0
tp173
F0.0
s((I15
I46
I19
I-2
tp174
I1
tp175
F0.0
s((I18
I42
I21
I-4
tp176
I0
tp177
F0.0
s((I28
I31
I18
I-1
tp178
I0
tp179
I0
s((I30
I27
I21
I2
tp180
I0
tp181
I0
s((I31
I29
I18
I-3
tp182
I0
tp183
F0.0
s((I17
I16
I18
I-1
tp184
I1
tp185
I0
s((I21
I19
I25
I5
tp186
I0
tp187
I0
s((I31
I27
I17
I-3
tp188
I1
tp189
I0
s((I18
I44
I19
I-3
tp190
I1
tp191
I0
s((I31
I29
I21
I-1
tp192
I1
tp193
I0
s((I15
I43
I18
I1
tp194
I1
tp195
I0
s((I17
I12
I21
I0
tp196
I1
tp197
I0
s((I27
I16
I26
I4
tp198
I1
tp199
I0
s((I27
I8
I24
I5
tp200
I1
tp201
F0.0
s((I16
I43
I26
I1
tp202
I0
tp203
I0
s((I19
I42
I19
I-1
tp204
I0
tp205
I0
s((I14
I41
I24
I3
tp206
I0
tp207
F0.0
s((I13
I4
I21
I-3
tp208
I0
tp209
I0
s((I12
I7
I26
I5
tp210
I1
tp211
I0
s((I19
I41
I18
I-3
tp212
I0
tp213
I0
s((I17
I1
I21
I-3
tp214
I1
tp215
I0
s((I29
I23
I26
I-3
tp216
I0
tp217
I0
s((I31
I13
I22
I-3
tp218
I1
tp219
I0
s((I18
I24
I19
I1
tp220
I0
tp221
I0
s((I31
I24
I18
I2
tp222
I0
tp223
F0.0
s((I21
I7
I17
I5
tp224
I1
tp225
F0.0
s((I23
I22
I21
I5
tp226
I1
tp227
I0
s((I23
I28
I24
I1
tp228
I0
tp229
I0
s((I15
I42
I22
I2
tp230
I1
tp231
F0.0
s((I22
I21
I22
I0
tp232
I1
tp233
F0.0
s((I29
I13
I17
I0
tp234
I0
tp235
F0.0
s((I14
I31
I24
I-3
tp236
I1
tp237
I0
s((I21
I37
I17
I-3
tp238
I0
tp239
I0
s((I29
I7
I25
I-3
tp240
I0
tp241
I0
s((I24
I30
I24
I-1
tp242
I1
tp243
I0
s((I19
I37
I26
I0
tp244
I0
tp245
I0
s((I32
I26
I18
I0
tp246
I0
tp247
F0.0
s((I19
I4
I18
I2
tp248
I1
tp249
F0.0
s((I20
I29
I22
I-1
tp250
I1
tp251
I0
s(I0
I0
tp252
F0.0
s((I19
I40
I21
I-2
tp253
I1
tp254
F0.0
s((I22
I11
I18
I0
tp255
I0
tp256
I0
s((I13
I22
I18
I4
tp257
I1
tp258
F0.0
s((I30
I10
I24
I3
tp259
I0
tp260
F0.0
s((I22
I32
I24
I-4
tp261
I0
tp262
F0.0
s((I15
I47
I22
I-3
tp263
I0
tp264
F0.0
s((I30
I20
I26
I-1
tp265
I1
tp266
F0.0
s((I27
I34
I18
I-4
tp267
I1
tp268
I0
s((I27
I22
I24
I0
tp269
I1
tp270
I0
s((I28
I16
I22
I-3
tp271
I0
tp272
I0
s((I16
I45
I21
I-2
tp273
I1
tp274
I0
s((I16
I45
I18
I-2
tp275
I0
tp276
F0.0
s((I28
I3
I18
I-3
tp277
I1
tp278
F0.0
s((I15
I9
I21
I3
tp279
I1
tp280
I0
s((I22
I13
I26
I5
tp281
I1
tp282
I0
s((I19
I26
I19
I-1
tp283
I1
tp284
I0
s((I28
I14
I24
I-3
tp285
I1
tp286
I0
s((I3
I3
I26
I5
tp287
I0
tp288
I0
s((I30
I18
I26
I2
tp289
I0
tp290
I0
s(g119
I1
tp291
F0.0
s((I19
I27
I22
I2
tp292
I1
tp293
F0.0
s((I24
I18
I19
I-3
tp294
I1
tp295
I0
s((I26
I25
I26
I-3
tp296
I1
tp297
F0.0
s((I18
I26
I24
I-3
tp298
I0
tp299
F0.0
s((I14
I37
I18
I-3
tp300
I0
tp301
F0.0
s((I17
I34
I22
I2
tp302
I1
tp303
F0.0
s((I20
I7
I18
I-1
tp304
I0
tp305
F0.0
s((I15
I46
I22
I-2
tp306
I0
tp307
F0.0
s((I21
I38
I21
I-4
tp308
I0
tp309
F0.0
s((I12
I6
I21
I5
tp310
I1
tp311
F0.0
s(g236
I0
tp312
F0.0
s((I19
I43
I25
I-3
tp313
I1
tp314
F0.0
s((I18
I16
I18
I5
tp315
I1
tp316
I0
s((I30
I22
I17
I3
tp317
I0
tp318
F0.0
s(g4
I1
tp319
F0.0
s((I22
I38
I18
I-3
tp320
I1
tp321
F0.0
s(g6
I0
tp322
F0.0
s(g8
I0
tp323
I0
s((I23
I13
I19
I3
tp324
I0
tp325
F0.0
s(g12
I1
tp326
I0
s(g133
I0
tp327
F0.0
s(g16
I0
tp328
I0
s((I28
I4
I22
I-4
tp329
I0
tp330
F0.0
s((I32
I12
I24
I0
tp331
I0
tp332
F0.0
s(g22
I0
tp333
I0
s(g24
I1
tp334
I0
s((I25
I8
I18
I-3
tp335
I1
tp336
I0
s(g28
I1
tp337
F0.0
s(g32
I0
tp338
F0.0
s((I22
I9
I19
I-4
tp339
I0
tp340
I0
s(g34
I1
tp341
I0
s(g38
I0
tp342
I0
s((I16
I25
I18
I1
tp343
I0
tp344
F0.0
s(g206
I1
tp345
F0.0
s((I15
I34
I18
I0
tp346
I1
tp347
I0
s((I26
I6
I19
I-4
tp348
I1
tp349
F0.0
s((I16
I45
I26
I-2
tp350
I1
tp351
I0
s(g56
I1
tp352
I0
s(g58
I0
tp353
I0
s((I27
I6
I22
I5
tp354
I0
tp355
I0
s(g60
I0
tp356
I0
s(g62
I0
tp357
I0
s(g64
I0
tp358
F0.0
s((I16
I45
I17
I-2
tp359
I0
tp360
F0.0
s((I10
I36
I24
I-3
tp361
I1
tp362
I0
s((I18
I17
I18
I-3
tp363
I0
tp364
I0
s(g68
I1
tp365
I0
s(g78
I1
tp366
F0.0
s((I16
I44
I22
I0
tp367
I1
tp368
I0
s(g80
I0
tp369
I0
s(g82
I0
tp370
I0
s(g84
I0
tp371
I0
s(g52
I1
tp372
F0.0
s((I26
I30
I26
I0
tp373
I0
tp374
F0.0
s((I19
I32
I19
I4
tp375
I0
tp376
F0.0
s(g91
I0
tp377
I0
s((I28
I16
I17
I-3
tp378
I0
tp379
F0.0
s(g93
I1
tp380
I0
s((I16
I44
I21
I0
tp381
I0
tp382
I0
s(g76
I0
tp383
I0
s(g99
I1
tp384
F0.0
s(g101
I0
tp385
F0.0
s((I25
I17
I24
I-3
tp386
I1
tp387
F0.0
s(g107
I0
tp388
I0
s((I16
I12
I18
I-3
tp389
I1
tp390
F0.0
s((I27
I32
I17
I-3
tp391
I1
tp392
I0
s((I26
I21
I25
I5
tp393
I1
tp394
I0
s(g148
I0
tp395
F0.0
s((I18
I36
I22
I0
tp396
I1
tp397
I0
s((I26
I20
I24
I2
tp398
I0
tp399
I0
s((I24
I33
I26
I-3
tp400
I0
tp401
F0.0
s((I29
I2
I25
I3
tp402
I1
tp403
F0.0
s((I9
I38
I24
I5
tp404
I0
tp405
I0
s((I15
I28
I24
I0
tp406
I1
tp407
F0.0
s(g127
I0
tp408
I0
s(g10
I1
tp409
I0
s(g131
I1
tp410
I0
s(g14
I1
tp411
F0.0
s((I18
I40
I17
I-3
tp412
I1
tp413
F0.0
s(g18
I1
tp414
F0.0
s(g139
I1
tp415
I0
s(g141
I1
tp416
I0
s(g20
I1
tp417
F0.0
s(g26
I1
tp418
I0
s(g150
I0
tp419
F0.0
s(g30
I1
tp420
F0.0
s(g36
I1
tp421
I0
s(g40
I0
tp422
F0.0
s(g224
I0
tp423
I0
s(g160
I0
tp424
I0
s(g46
I0
tp425
I0
s(g48
I1
tp426
I0
s((I21
I21
I19
I-3
tp427
I0
tp428
I0
s(g50
I0
tp429
I0
s(g54
I0
tp430
F0.0
s(g166
I0
tp431
F0.0
s(g172
I1
tp432
I0
s(g381
I1
tp433
F0.0
s(g70
I0
tp434
F0.0
s(g72
I1
tp435
F0.0
s(g180
I1
tp436
F0.0
s(g74
I1
tp437
F0.0
s(g184
I0
tp438
F25.0
s(g186
I1
tp439
F0.0
s(g192
I0
tp440
F0.0
s(g194
I0
tp441
F0.0
s(g198
I0
tp442
F0.0
s(g202
I1
tp443
F0.0
s(g204
I1
tp444
F0.0
s(g87
I0
tp445
F0.0
s(g218
I0
tp446
F0.0
s(g220
I1
tp447
F0.0
s(g97
I1
tp448
I0
s(g125
I1
tp449
F0.0
s(g226
I0
tp450
F0.0
s(g103
I0
tp451
I0
s(g228
I1
tp452
F0.0
s(g105
I0
tp453
F0.0
s(g109
I0
tp454
I0
s(g230
I0
tp455
I0
s(g111
I0
tp456
I0
s(g113
I1
tp457
F0.0
s(g115
I1
tp458
I0
s(g232
I0
tp459
I0
s(g117
I1
tp460
I0
s(g412
I0
tp461
I0
s(g121
I1
tp462
F0.0
s(g238
I1
tp463
F0.0
s(g44
I0
tp464
F0.0
s(g240
I1
tp465
F0.0
s(g244
I1
tp466
F0.0
s(g129
I1
tp467
F0.0
s(g246
I1
tp468
I0
s(g248
I0
tp469
I0
s(g250
I0
tp470
F0.0
s(g135
I1
tp471
F0.0
s(g137
I0
tp472
I0
s(g257
I0
tp473
I0
s(g261
I1
tp474
I0
s(g143
I0
tp475
I0
s(g404
I1
tp476
F0.0
s(g146
I0
tp477
F0.0
s(g89
I0
tp478
I0
s(g267
I0
tp479
F0.0
s(g269
I0
tp480
F0.0
s(g152
I1
tp481
F0.0
s(g154
I1
tp482
F0.0
s(g156
I1
tp483
F0.0
s(g158
I1
tp484
F0.0
s(g162
I0
tp485
F0.0
s(g164
I0
tp486
I0
s(g42
I0
tp487
F0.0
s(g168
I0
tp488
I0
s(g285
I0
tp489
F0.0
s(g170
I0
tp490
F0.0
s(g289
I1
tp491
F0.0
s(g174
I0
tp492
I0
s(g176
I1
tp493
I0
s(g178
I1
tp494
F0.0
s(g182
I1
tp495
I0
s(g188
I0
tp496
F0.0
s(g300
I1
tp497
I0
s(g190
I0
tp498
F0.0
s(g196
I0
tp499
F0.0
s(g200
I0
tp500
I0
s(g302
I0
tp501
I0
s(g208
I1
tp502
F0.0
s(g210
I0
tp503
F0.0
s(g396
I0
tp504
F0.0
s(g308
I1
tp505
I0
s(g212
I1
tp506
F0.0
s(g214
I0
tp507
F0.0
s(g216
I1
tp508
F0.0
s(g315
I0
tp509
F0.0
s(g367
I0
tp510
F0.0
s(g222
I1
tp511
I0
s(g317
I1
tp512
I0
s(g320
I0
tp513
I0
s(g324
I1
tp514
I0
s(g304
I1
tp515
I0
s(g427
I1
tp516
F0.0
s(g329
I1
tp517
I0
s(g331
I1
tp518
I0
s(g234
I1
tp519
I0
s(g123
I0
tp520
F0.0
s(g339
I1
tp521
F0.0
s(g242
I0
tp522
F0.0
s(g343
I1
tp523
I0
s(g346
I0
tp524
F0.0
s(g348
I0
tp525
I0
s(g350
I0
tp526
F0.0
s(g253
I0
tp527
I0
s(g354
I1
tp528
F0.0
s(g255
I1
tp529
F0.0
s(g359
I1
tp530
I0
s(g361
I0
tp531
F0.0
s(g259
I1
tp532
I0
s(g363
I1
tp533
F0.0
s(g263
I1
tp534
I0
s(g335
I0
tp535
F0.0
s(g265
I0
tp536
I0
s(g271
I1
tp537
F0.0
s(g273
I0
tp538
F0.0
s(g275
I1
tp539
I0
s(g277
I0
tp540
I0
s(g279
I0
tp541
F0.0
s(g281
I0
tp542
F0.0
s(g283
I0
tp543
F0.0
s(g287
I1
tp544
F0.0
s(g373
I1
tp545
I0
s(g375
I1
tp546
I0
s(g378
I1
tp547
I0
s(g292
I0
tp548
I0
s(g294
I0
tp549
F0.0
s(g296
I0
tp550
I0
s(g298
I1
tp551
I0
s(g386
I0
tp552
I0
s(g389
I0
tp553
I0
s(g391
I0
tp554
F0.0
s(g393
I0
tp555
F0.0
s(g398
I1
tp556
F0.0
s(g306
I1
tp557
I0
s(g310
I0
tp558
I0
s(g313
I0
tp559
I0
s(g400
I1
tp560
I0
s(g402
I0
tp561
I0
s(g406
I0
tp562
I0
s.