ccollections
defaultdict
p0
(c__builtin__
int
p1
tp2
Rp3
((I30
I16
I20
I0
tp4
I1
tp5
I0
s((I26
I25
I19
I-4
tp6
I1
tp7
I0
s((I15
I46
I25
I-3
tp8
I1
tp9
I0
s((I30
I13
I20
I-3
tp10
I1
tp11
I0
s((I29
I6
I18
I2
tp12
I1
tp13
F0.0
s((I23
I10
I20
I-3
tp14
I1
tp15
I0
s((I12
I40
I17
I4
tp16
I0
tp17
F0.0
s((I16
I43
I21
I1
tp18
I1
tp19
I0
s((I28
I26
I19
I0
tp20
I1
tp21
I0
s((I30
I2
I21
I3
tp22
I1
tp23
F0.0
s((I28
I8
I19
I-3
tp24
I0
tp25
I0
s((I29
I19
I18
I-3
tp26
I1
tp27
I0
s((I23
I9
I25
I-1
tp28
I1
tp29
I0
s((I23
I35
I21
I0
tp30
I0
tp31
F0.0
s((I25
I25
I22
I1
tp32
I1
tp33
I0
s((I18
I40
I24
I-3
tp34
I0
tp35
I0
s((I32
I3
I18
I0
tp36
I0
tp37
F0.0
s((I18
I37
I26
I3
tp38
I1
tp39
I0
s((I20
I2
I20
I-3
tp40
I0
tp41
F0.0
s((I27
I2
I25
I4
tp42
I0
tp43
F0.0
s((I2
I34
I17
I5
tp44
I1
tp45
I0
s((I28
I34
I18
I-1
tp46
I0
tp47
F0.0
s((I29
I25
I19
I2
tp48
I0
tp49
F0.0
s((I28
I9
I17
I0
tp50
I0
tp51
I0
s((I11
I26
I24
I-3
tp52
I1
tp53
F0.0
s((I11
I39
I18
I5
tp54
I0
tp55
I0
s((I27
I11
I19
I5
tp56
I1
tp57
F0.0
s((I17
I36
I18
I4
tp58
I1
tp59
F0.0
s((I30
I9
I18
I-3
tp60
I1
tp61
F0.0
s((I25
I32
I17
I-3
tp62
I1
tp63
I0
s((I19
I40
I21
I0
tp64
I0
tp65
I0
s((I6
I36
I22
I5
tp66
I0
tp67
F0.0
s((I22
I34
I18
I1
tp68
I1
tp69
I0
s((I29
I17
I17
I2
tp70
I0
tp71
F0.0
s((I8
I37
I21
I5
tp72
I1
tp73
I0
s((I16
I45
I24
I-2
tp74
I1
tp75
I0
s((I30
I17
I24
I-3
tp76
I1
tp77
I0
s((I19
I41
I20
I0
tp78
I0
tp79
I0
s((I24
I19
I18
I0
tp80
I1
tp81
F0.0
s((I26
I17
I18
I-3
tp82
I1
tp83
F0.0
s((I27
I11
I25
I5
tp84
I1
tp85
F0.0
s((I20
I13
I22
I2
tp86
I1
tp87
F0.0
s((I28
I18
I21
I-3
tp88
I1
tp89
I0
s((I12
I40
I23
I4
tp90
I1
tp91
I0
s((I16
I45
I20
I-2
tp92
I0
tp93
I0
s((I18
I40
I17
I-3
tp94
I0
tp95
I0
s((I29
I20
I24
I3
tp96
I1
tp97
F0.0
s((I28
I10
I21
I-3
tp98
I0
tp99
I0
s((I21
I37
I24
I-3
tp100
I1
tp101
F0.0
s((I19
I43
I26
I-3
tp102
I0
tp103
F0.0
s((I25
I23
I19
I5
tp104
I0
tp105
I0
s((I20
I42
I18
I-4
tp106
I1
tp107
F0.0
s((I28
I32
I20
I-3
tp108
I0
tp109
I0
s((I29
I10
I18
I-3
tp110
I0
tp111
F0.0
s((I18
I40
I18
I-3
tp112
I0
tp113
I0
s((I27
I26
I21
I3
tp114
I0
tp115
I0
s((I24
I25
I20
I5
tp116
I1
tp117
F0.0
s((I28
I29
I16
I-3
tp118
I0
tp119
I0
s((I26
I12
I21
I3
tp120
I0
tp121
F0.0
s((I32
I22
I25
I-1
tp122
I1
tp123
F0.0
s((I26
I9
I16
I3
tp124
I1
tp125
I0
s((I27
I23
I20
I3
tp126
I0
tp127
I0
s((I31
I31
I20
I-2
tp128
I0
tp129
I0
s((I15
I38
I19
I-3
tp130
I1
tp131
I0
s((I29
I31
I21
I-3
tp132
I0
tp133
F0.0
s((I18
I41
I25
I-3
tp134
I1
tp135
F0.0
s((I18
I26
I21
I-3
tp136
I1
tp137
F0.0
s((I22
I40
I21
I-3
tp138
I0
tp139
F0.0
s((I31
I9
I24
I-3
tp140
I0
tp141
F0.0
s((I19
I42
I18
I-2
tp142
I1
tp143
I0
s((I30
I7
I18
I0
tp144
I0
tp145
I0
s((I23
I12
I20
I-3
tp146
I0
tp147
F0.0
s((I31
I26
I16
I-3
tp148
I0
tp149
F0.0
s((I16
I45
I18
I-2
tp150
I0
tp151
F0.0
s((I16
I32
I19
I-4
tp152
I0
tp153
I0
s((I30
I33
I20
I-4
tp154
I1
tp155
I0
s((I16
I45
I22
I-2
tp156
I0
tp157
F0.0
s((I28
I6
I19
I3
tp158
I0
tp159
I0
s((I29
I16
I18
I1
tp160
I0
tp161
F0.0
s((I16
I36
I19
I-1
tp162
I1
tp163
I0
s((I25
I4
I25
I-3
tp164
I0
tp165
I0
s((I22
I11
I19
I5
tp166
I1
tp167
F0.0
s((I7
I26
I22
I-4
tp168
I1
tp169
I0
s((I10
I29
I26
I-3
tp170
I0
tp171
I0
s((I21
I34
I25
I2
tp172
I1
tp173
F0.0
s((I29
I18
I25
I4
tp174
I1
tp175
I0
s((I3
I35
I24
I5
tp176
I1
tp177
F0.0
s((I32
I4
I17
I0
tp178
I1
tp179
I0
s((I20
I23
I20
I2
tp180
I0
tp181
I0
s(g90
I0
tp182
F0.0
s((I30
I19
I20
I-1
tp183
I0
tp184
I0
s((I16
I29
I21
I5
tp185
I1
tp186
F0.0
s((I17
I4
I20
I-3
tp187
I1
tp188
F0.0
s((I15
I46
I25
I-2
tp189
I1
tp190
F0.0
s((I19
I43
I20
I-2
tp191
I0
tp192
I0
s((I7
I37
I23
I5
tp193
I1
tp194
I0
s((I20
I34
I22
I-3
tp195
I1
tp196
I0
s((I21
I33
I24
I-3
tp197
I0
tp198
F0.0
s((I14
I33
I18
I1
tp199
I0
tp200
F0.0
s((I21
I26
I20
I0
tp201
I1
tp202
I0
s((I22
I40
I20
I-3
tp203
I0
tp204
F0.0
s((I21
I32
I21
I3
tp205
I0
tp206
F0.0
s((I16
I44
I21
I0
tp207
I1
tp208
I0
s((I20
I20
I26
I-1
tp209
I0
tp210
I0
s((I31
I2
I19
I-1
tp211
I1
tp212
F0.0
s((I30
I13
I19
I2
tp213
I0
tp214
I0
s((I30
I18
I20
I4
tp215
I0
tp216
F0.0
s((I17
I12
I22
I-3
tp217
I1
tp218
I0
s((I29
I18
I19
I0
tp219
I0
tp220
F0.0
s((I16
I44
I25
I0
tp221
I0
tp222
I0
s((I16
I43
I17
I1
tp223
I0
tp224
I0
s((I18
I40
I19
I-3
tp225
I0
tp226
I0
s((I30
I12
I24
I3
tp227
I0
tp228
F0.0
s((I5
I32
I24
I-3
tp229
I0
tp230
I0
s((I26
I13
I19
I5
tp231
I0
tp232
F0.0
s((I21
I36
I25
I2
tp233
I1
tp234
F0.0
s((I23
I38
I20
I-1
tp235
I1
tp236
F0.0
s((I19
I31
I18
I0
tp237
I1
tp238
I0
s((I24
I2
I20
I-3
tp239
I1
tp240
I0
s((I19
I1
I21
I0
tp241
I0
tp242
I0
s((I28
I25
I18
I-1
tp243
I1
tp244
I0
s((I21
I5
I22
I-4
tp245
I1
tp246
F0.0
s((I25
I34
I21
I-3
tp247
I1
tp248
F0.0
s((I22
I35
I17
I0
tp249
I0
tp250
I0
s((I24
I8
I20
I1
tp251
I1
tp252
I0
s((I24
I15
I25
I5
tp253
I0
tp254
F0.0
s((I31
I23
I25
I0
tp255
I1
tp256
I0
s((I23
I30
I22
I-4
tp257
I0
tp258
F0.0
s((I28
I4
I18
I3
tp259
I1
tp260
I0
s((I30
I9
I19
I0
tp261
I0
tp262
F0.0
s((I32
I23
I16
I0
tp263
I0
tp264
I0
s((I24
I6
I21
I2
tp265
I0
tp266
F0.0
s((I27
I14
I18
I0
tp267
I0
tp268
I0
s((I30
I27
I20
I3
tp269
I0
tp270
I0
s((I31
I4
I18
I-3
tp271
I1
tp272
F0.0
s((I26
I2
I26
I5
tp273
I1
tp274
I0
s((I30
I11
I20
I0
tp275
I0
tp276
F0.0
s((I18
I30
I19
I-4
tp277
I0
tp278
I0
s((I15
I15
I22
I1
tp279
I0
tp280
I0
s((I3
I35
I22
I5
tp281
I1
tp282
F0.0
s((I29
I12
I24
I3
tp283
I1
tp284
F0.0
s((I28
I15
I20
I3
tp285
I0
tp286
F0.0
s(g269
I1
tp287
F0.0
s((I32
I6
I24
I0
tp288
I0
tp289
F0.0
s((I26
I30
I17
I0
tp290
I0
tp291
F0.0
s((I27
I15
I16
I-3
tp292
I1
tp293
I0
s((I24
I20
I21
I-3
tp294
I0
tp295
I0
s((I17
I28
I18
I3
tp296
I0
tp297
I0
s((I26
I36
I20
I-3
tp298
I0
tp299
I0
s((I19
I10
I20
I5
tp300
I0
tp301
F0.0
s((I7
I37
I17
I5
tp302
I0
tp303
F0.0
s((I27
I20
I24
I-2
tp304
I1
tp305
F0.0
s((I22
I32
I18
I2
tp306
I1
tp307
I0
s((I26
I27
I18
I-3
tp308
I0
tp309
F0.0
s((I25
I32
I19
I0
tp310
I0
tp311
I0
s((I25
I35
I20
I-3
tp312
I1
tp313
I0
s((I21
I37
I19
I-3
tp314
I1
tp315
F0.0
s((I27
I29
I25
I-3
tp316
I1
tp317
F0.0
s((I21
I4
I21
I5
tp318
I1
tp319
F0.0
s((I32
I16
I25
I0
tp320
I1
tp321
F0.0
s((I30
I16
I19
I2
tp322
I0
tp323
F0.0
s((I15
I7
I20
I5
tp324
I0
tp325
I0
s((I18
I39
I24
I-2
tp326
I0
tp327
F0.0
s((I16
I4
I16
I5
tp328
I1
tp329
F0.0
s((I30
I5
I25
I0
tp330
I0
tp331
F0.0
s((I21
I28
I19
I-4
tp332
I1
tp333
F0.0
s((I28
I7
I24
I-3
tp334
I1
tp335
I0
s((I28
I8
I20
I3
tp336
I1
tp337
F0.0
s((I19
I16
I24
I-1
tp338
I1
tp339
I0
s((I22
I38
I20
I-3
tp340
I1
tp341
I0
s((I29
I9
I18
I3
tp342
I0
tp343
I0
s((I23
I36
I20
I0
tp344
I1
tp345
I0
s((I32
I18
I24
I-3
tp346
I0
tp347
F0.0
s((I14
I41
I22
I3
tp348
I0
tp349
F0.0
s((I22
I37
I17
I-3
tp350
I1
tp351
I0
s((I13
I27
I26
I-4
tp352
I0
tp353
F0.0
s((I24
I27
I17
I3
tp354
I1
tp355
F0.0
s((I15
I23
I24
I-3
tp356
I0
tp357
F0.0
s((I27
I4
I18
I3
tp358
I1
tp359
F0.0
s((I31
I14
I24
I0
tp360
I0
tp361
I0
s((I25
I28
I22
I-1
tp362
I1
tp363
I0
s((I31
I28
I20
I1
tp364
I1
tp365
F0.0
s((I25
I36
I20
I-3
tp366
I1
tp367
I0
s((I27
I12
I18
I1
tp368
I1
tp369
F0.0
s((I18
I40
I16
I-3
tp370
I1
tp371
F0.0
s((I22
I4
I20
I3
tp372
I0
tp373
I0
s((I21
I32
I22
I-1
tp374
I0
tp375
I0
s((I9
I23
I27
I5
tp376
I0
tp377
I0
s((I29
I4
I19
I-4
tp378
I1
tp379
I0
s((I22
I14
I21
I5
tp380
I1
tp381
F0.0
s((I28
I2
I24
I2
tp382
I0
tp383
I0
s((I26
I32
I20
I0
tp384
I1
tp385
F0.0
s((I23
I21
I18
I-3
tp386
I0
tp387
F0.0
s((I28
I20
I19
I-3
tp388
I1
tp389
I0
s((I28
I28
I20
I3
tp390
I0
tp391
F0.0
s((I16
I12
I24
I4
tp392
I1
tp393
I0
s((I19
I41
I19
I-1
tp394
I1
tp395
F0.0
s((I24
I34
I25
I-3
tp396
I0
tp397
F0.0
s((I30
I26
I25
I-3
tp398
I0
tp399
I0
s((I10
I39
I22
I5
tp400
I1
tp401
I0
s((I18
I44
I25
I-3
tp402
I1
tp403
F0.0
s((I21
I30
I24
I1
tp404
I0
tp405
I0
s((I31
I3
I20
I-1
tp406
I1
tp407
I0
s((I15
I46
I19
I-2
tp408
I1
tp409
F0.0
s((I13
I10
I24
I5
tp410
I0
tp411
F0.0
s((I20
I18
I22
I-3
tp412
I0
tp413
F0.0
s((I15
I46
I20
I-3
tp414
I0
tp415
I0
s((I31
I25
I25
I-3
tp416
I1
tp417
F0.0
s(I0
I0
tp418
F0.0
s((I15
I43
I23
I1
tp419
I0
tp420
F0.0
s((I33
I28
I20
I-1
tp421
I1
tp422
F0.0
s((I31
I7
I21
I-3
tp423
I0
tp424
I0
s((I30
I28
I19
I-1
tp425
I0
tp426
I0
s((I14
I41
I21
I3
tp427
I1
tp428
I0
s((I14
I26
I26
I-2
tp429
I1
tp430
F0.0
s((I15
I46
I17
I-2
tp431
I0
tp432
F0.0
s((I29
I12
I19
I-3
tp433
I0
tp434
F0.0
s((I21
I14
I20
I5
tp435
I1
tp436
F0.0
s((I26
I7
I22
I-2
tp437
I1
tp438
I0
s((I27
I32
I24
I-3
tp439
I1
tp440
I0
s((I29
I30
I19
I-3
tp441
I1
tp442
I0
s((I23
I37
I21
I0
tp443
I0
tp444
I0
s((I14
I20
I22
I-4
tp445
I0
tp446
F0.0
s((I32
I15
I24
I0
tp447
I1
tp448
F0.0
s((I16
I43
I24
I1
tp449
I1
tp450
I0
s((I18
I44
I19
I-3
tp451
I1
tp452
I0
s((I15
I43
I18
I1
tp453
I1
tp454
F0.0
s((I30
I4
I19
I-3
tp455
I1
tp456
F0.0
s((I21
I23
I21
I-3
tp457
I1
tp458
F0.0
s((I19
I22
I26
I-4
tp459
I0
tp460
F0.0
s((I28
I29
I19
I-3
tp461
I0
tp462
F0.0
s((I31
I13
I25
I2
tp463
I1
tp464
I0
s((I15
I43
I17
I1
tp465
I0
tp466
F0.0
s((I26
I10
I24
I5
tp467
I1
tp468
F0.0
s((I12
I18
I27
I0
tp469
I0
tp470
F0.0
s((I13
I26
I27
I5
tp471
I0
tp472
F0.0
s((I13
I40
I24
I4
tp473
I1
tp474
I0
s((I31
I9
I20
I-1
tp475
I0
tp476
F0.0
s((I26
I23
I19
I3
tp477
I0
tp478
I0
s((I29
I14
I18
I-3
tp479
I0
tp480
F0.0
s((I25
I32
I25
I-1
tp481
I0
tp482
I0
s((I19
I14
I24
I1
tp483
I1
tp484
I0
s((I16
I24
I26
I-4
tp485
I0
tp486
I0
s((I18
I44
I20
I-3
tp487
I1
tp488
F0.0
s((I24
I8
I19
I-3
tp489
I0
tp490
I0
s((I29
I27
I25
I-1
tp491
I1
tp492
F0.0
s((I30
I3
I24
I3
tp493
I0
tp494
I0
s((I26
I16
I20
I-3
tp495
I0
tp496
I0
s((I21
I39
I25
I-3
tp497
I0
tp498
F0.0
s((I25
I14
I17
I5
tp499
I0
tp500
I0
s((I31
I6
I19
I-3
tp501
I1
tp502
F0.0
s(g237
I0
tp503
F0.0
s((I30
I20
I16
I3
tp504
I0
tp505
I0
s((I20
I31
I27
I0
tp506
I0
tp507
F0.0
s((I27
I6
I19
I-4
tp508
I0
tp509
I0
s((I29
I19
I20
I-3
tp510
I1
tp511
F0.0
s((I11
I20
I27
I-3
tp512
I0
tp513
F0.0
s((I15
I23
I21
I-3
tp514
I0
tp515
F0.0
s((I32
I26
I20
I1
tp516
I1
tp517
F0.0
s((I24
I38
I18
I-2
tp518
I1
tp519
F0.0
s((I18
I31
I20
I5
tp520
I0
tp521
I0
s((I17
I37
I27
I3
tp522
I1
tp523
F0.0
s((I18
I10
I22
I-1
tp524
I1
tp525
I0
s((I30
I5
I20
I-3
tp526
I0
tp527
F0.0
s((I21
I6
I16
I5
tp528
I1
tp529
I0
s((I22
I39
I25
I-1
tp530
I0
tp531
F0.0
s((I31
I20
I25
I2
tp532
I1
tp533
F0.0
s((I28
I13
I20
I3
tp534
I0
tp535
I0
s((I30
I5
I20
I3
tp536
I0
tp537
I0
s((I20
I31
I18
I3
tp538
I0
tp539
F0.0
s((I10
I38
I21
I5
tp540
I1
tp541
I0
s((I25
I18
I16
I5
tp542
I0
tp543
I0
s((I25
I17
I20
I3
tp544
I1
tp545
I0
s((I30
I30
I20
I0
tp546
I1
tp547
F0.0
s((I21
I41
I20
I-3
tp548
I0
tp549
F0.0
s((I28
I12
I16
I0
tp550
I0
tp551
F0.0
s((I22
I41
I18
I-4
tp552
I0
tp553
F0.0
s((I29
I23
I21
I-3
tp554
I1
tp555
I0
s((I18
I7
I22
I-5
tp556
I0
tp557
I0
s((I21
I9
I21
I5
tp558
I0
tp559
F0.0
s((I22
I33
I20
I2
tp560
I0
tp561
F0.0
s((I31
I6
I26
I0
tp562
I1
tp563
F0.0
s((I23
I17
I26
I-3
tp564
I1
tp565
I0
s((I19
I27
I18
I-3
tp566
I0
tp567
F0.0
s((I26
I33
I19
I-3
tp568
I0
tp569
I0
s((I31
I19
I17
I0
tp570
I0
tp571
F0.0
s((I16
I6
I21
I5
tp572
I1
tp573
F0.0
s((I26
I20
I20
I0
tp574
I0
tp575
F0.0
s((I2
I34
I23
I5
tp576
I1
tp577
F0.0
s((I24
I23
I24
I1
tp578
I0
tp579
I0
s((I7
I3
I24
I-3
tp580
I0
tp581
I0
s((I5
I36
I21
I5
tp582
I0
tp583
F0.0
s((I21
I11
I25
I-4
tp584
I0
tp585
F0.0
s(g54
I1
tp586
F0.0
s((I29
I11
I18
I-3
tp587
I1
tp588
F0.0
s(g16
I1
tp589
I0
s(g249
I1
tp590
F0.0
s((I26
I12
I26
I-3
tp591
I0
tp592
I0
s((I31
I24
I20
I3
tp593
I0
tp594
F0.0
s((I24
I11
I21
I-3
tp595
I1
tp596
I0
s((I19
I22
I18
I-3
tp597
I0
tp598
I0
s((I26
I34
I20
I-1
tp599
I0
tp600
I0
s((I12
I26
I21
I-3
tp601
I1
tp602
F0.0
s((I25
I9
I22
I-4
tp603
I0
tp604
F0.0
s((I27
I32
I18
I1
tp605
I1
tp606
I0
s(g82
I0
tp607
F0.0
s((I5
I5
I24
I5
tp608
I1
tp609
F0.0
s((I15
I20
I24
I0
tp610
I0
tp611
I0
s((I5
I32
I21
I-3
tp612
I0
tp613
I0
s((I19
I25
I18
I-3
tp614
I0
tp615
F0.0
s((I20
I13
I25
I5
tp616
I1
tp617
F0.0
s((I16
I45
I27
I-2
tp618
I1
tp619
F0.0
s((I21
I24
I18
I0
tp620
I1
tp621
F0.0
s((I33
I22
I20
I-1
tp622
I1
tp623
F0.0
s((I27
I13
I18
I4
tp624
I0
tp625
I0
s((I15
I46
I21
I-2
tp626
I1
tp627
F0.0
s((I30
I9
I18
I0
tp628
I1
tp629
I0
s((I16
I45
I19
I-2
tp630
I1
tp631
I0
s((I23
I36
I19
I0
tp632
I1
tp633
F0.0
s((I21
I12
I20
I5
tp634
I0
tp635
I0
s((I15
I17
I22
I-1
tp636
I1
tp637
I0
s((I13
I35
I26
I5
tp638
I0
tp639
F0.0
s((I6
I12
I27
I5
tp640
I0
tp641
F0.0
s(g427
I0
tp642
F0.0
s((I16
I45
I21
I-2
tp643
I1
tp644
F0.0
s((I23
I20
I18
I-3
tp645
I0
tp646
I0
s(g156
I1
tp647
I0
s(g312
I0
tp648
F0.0
s((I21
I15
I21
I-3
tp649
I1
tp650
F0.0
s((I25
I29
I18
I4
tp651
I0
tp652
I0
s((I15
I43
I22
I1
tp653
I0
tp654
F0.0
s((I16
I25
I18
I-3
tp655
I0
tp656
I0
s((I22
I2
I20
I-3
tp657
I1
tp658
F0.0
s((I31
I29
I20
I-3
tp659
I0
tp660
F0.0
s((I24
I7
I20
I0
tp661
I1
tp662
I0
s((I19
I43
I27
I-3
tp663
I1
tp664
I0
s((I16
I45
I23
I-2
tp665
I0
tp666
F0.0
s((I18
I20
I22
I5
tp667
I1
tp668
F0.0
s((I15
I43
I16
I1
tp669
I0
tp670
I0
s((I15
I43
I19
I1
tp671
I0
tp672
F0.0
s(g78
I1
tp673
F0.0
s((I15
I43
I24
I1
tp674
I1
tp675
F0.0
s((I22
I21
I20
I-4
tp676
I1
tp677
I0
s((I20
I28
I20
I-3
tp678
I0
tp679
F0.0
s((I27
I21
I20
I5
tp680
I0
tp681
I0
s((I13
I40
I22
I4
tp682
I1
tp683
F0.0
s((I22
I6
I20
I3
tp684
I1
tp685
I0
s((I24
I39
I20
I-3
tp686
I0
tp687
F0.0
s((I7
I37
I24
I5
tp688
I1
tp689
I0
s((I3
I35
I21
I5
tp690
I1
tp691
F0.0
s((I14
I47
I20
I-4
tp692
I1
tp693
I0
s((I10
I30
I18
I4
tp694
I1
tp695
I0
s((I29
I4
I24
I0
tp696
I1
tp697
I0
s(g404
I1
tp698
F0.0
s((I27
I15
I18
I-2
tp699
I0
tp700
F0.0
s((I31
I6
I18
I-3
tp701
I0
tp702
I0
s((I25
I9
I21
I0
tp703
I0
tp704
F0.0
s((I32
I4
I21
I0
tp705
I0
tp706
I0
s((I10
I15
I27
I3
tp707
I1
tp708
I0
s((I15
I33
I19
I2
tp709
I0
tp710
I0
s((I23
I27
I19
I-4
tp711
I1
tp712
F0.0
s((I22
I23
I22
I4
tp713
I0
tp714
F0.0
s((I23
I35
I18
I0
tp715
I1
tp716
I0
s((I24
I12
I20
I5
tp717
I0
tp718
F0.0
s((I5
I32
I22
I-3
tp719
I1
tp720
I0
s((I20
I5
I20
I4
tp721
I0
tp722
I0
s((I5
I28
I22
I1
tp723
I0
tp724
I0
s((I23
I6
I25
I1
tp725
I0
tp726
I0
s((I30
I21
I17
I-3
tp727
I1
tp728
F0.0
s((I27
I17
I21
I4
tp729
I1
tp730
I0
s((I28
I29
I24
I0
tp731
I1
tp732
F0.0
s((I29
I21
I25
I3
tp733
I0
tp734
I0
s((I18
I28
I27
I3
tp735
I0
tp736
F0.0
s((I32
I3
I19
I0
tp737
I0
tp738
I0
s((I15
I38
I22
I-3
tp739
I0
tp740
I0
s((I30
I18
I19
I-3
tp741
I0
tp742
F0.0
s((I27
I5
I22
I0
tp743
I0
tp744
F0.0
s((I24
I31
I25
I-3
tp745
I0
tp746
I0
s((I24
I35
I24
I-3
tp747
I1
tp748
F0.0
s((I27
I23
I19
I-2
tp749
I0
tp750
I0
s((I32
I24
I20
I-3
tp751
I0
tp752
I0
s((I25
I15
I20
I5
tp753
I1
tp754
I0
s((I29
I21
I20
I-3
tp755
I0
tp756
F0.0
s(g245
I0
tp757
I0
s((I22
I38
I19
I-3
tp758
I0
tp759
F0.0
s((I29
I2
I18
I-3
tp760
I1
tp761
F0.0
s((I18
I18
I24
I-3
tp762
I1
tp763
I0
s((I15
I46
I22
I-2
tp764
I0
tp765
F0.0
s((I14
I28
I18
I5
tp766
I0
tp767
I0
s((I22
I37
I21
I-3
tp768
I1
tp769
I0
s((I27
I35
I20
I-4
tp770
I1
tp771
F0.0
s((I31
I15
I19
I0
tp772
I1
tp773
I0
s((I15
I42
I18
I2
tp774
I1
tp775
I0
s((I15
I46
I20
I-2
tp776
I1
tp777
F0.0
s((I23
I19
I20
I-1
tp778
I0
tp779
I0
s(g267
I1
tp780
F0.0
s((I8
I29
I24
I-2
tp781
I0
tp782
I0
s((I9
I24
I22
I-1
tp783
I1
tp784
F0.0
s(g8
I0
tp785
F0.0
s(g58
I0
tp786
I0
s((I17
I44
I18
I-4
tp787
I1
tp788
F0.0
s((I24
I14
I18
I-3
tp789
I1
tp790
I0
s(g18
I0
tp791
F0.0
s(g20
I0
tp792
F0.0
s(g465
I1
tp793
I0
s((I19
I43
I21
I-3
tp794
I0
tp795
F0.0
s((I32
I20
I20
I1
tp796
I1
tp797
I0
s(g24
I1
tp798
F0.0
s(g134
I0
tp799
I0
s(g717
I1
tp800
I0
s((I14
I36
I18
I-2
tp801
I0
tp802
F0.0
s((I11
I21
I22
I-3
tp803
I1
tp804
F0.0
s((I29
I28
I21
I0
tp805
I0
tp806
I0
s(g42
I1
tp807
I0
s(g46
I1
tp808
I0
s(g50
I1
tp809
F0.0
s((I18
I18
I21
I-3
tp810
I0
tp811
I0
s((I13
I40
I19
I4
tp812
I1
tp813
F0.0
s((I18
I8
I22
I2
tp814
I1
tp815
F0.0
s((I15
I42
I24
I2
tp816
I1
tp817
F0.0
s(g62
I0
tp818
F0.0
s((I22
I38
I20
I0
tp819
I0
tp820
I0
s((I6
I30
I22
I-1
tp821
I1
tp822
I0
s(g64
I1
tp823
F0.0
s((I19
I34
I18
I-3
tp824
I1
tp825
I0
s((I23
I3
I22
I-4
tp826
I0
tp827
F0.0
s(g72
I0
tp828
F0.0
s(g74
I0
tp829
F0.0
s((I27
I20
I19
I-3
tp830
I1
tp831
F0.0
s((I31
I19
I19
I-1
tp832
I0
tp833
F0.0
s(g80
I0
tp834
I0
s((I13
I40
I21
I4
tp835
I0
tp836
F0.0
s((I21
I16
I22
I-1
tp837
I1
tp838
I0
s(g86
I0
tp839
I0
s((I19
I40
I27
I0
tp840
I0
tp841
F0.0
s(g30
I1
tp842
I0
s((I16
I44
I22
I0
tp843
I0
tp844
F0.0
s((I31
I6
I17
I-3
tp845
I0
tp846
I0
s((I31
I7
I20
I1
tp847
I1
tp848
F0.0
s(g98
I1
tp849
F0.0
s((I26
I36
I18
I-3
tp850
I0
tp851
F0.0
s(g104
I1
tp852
F0.0
s((I21
I41
I25
I-3
tp853
I0
tp854
F0.0
s(g285
I1
tp855
I0
s(g562
I0
tp856
I0
s(g110
I1
tp857
I0
s((I27
I24
I17
I-3
tp858
I1
tp859
F0.0
s((I16
I45
I16
I-2
tp860
I0
tp861
F0.0
s(g532
I0
tp862
I0
s((I18
I43
I20
I-3
tp863
I0
tp864
I0
s(g814
I0
tp865
I0
s(g118
I1
tp866
F0.0
s((I24
I34
I16
I-3
tp867
I1
tp868
I0
s(g122
I0
tp869
I0
s((I17
I36
I22
I-4
tp870
I1
tp871
F0.0
s(g850
I1
tp872
I0
s(g128
I1
tp873
F0.0
s((I19
I40
I18
I0
tp874
I1
tp875
F0.0
s(g130
I0
tp876
F0.0
s(g132
I1
tp877
I0
s(g60
I0
tp878
I0
s((I9
I8
I24
I5
tp879
I0
tp880
F0.0
s((I18
I29
I18
I5
tp881
I0
tp882
I0
s(g138
I1
tp883
I0
s((I16
I20
I21
I0
tp884
I1
tp885
F0.0
s(g142
I0
tp886
F0.0
s((I28
I15
I21
I0
tp887
I0
tp888
F0.0
s(g146
I1
tp889
I0
s(g699
I1
tp890
I0
s(g148
I1
tp891
I0
s((I21
I37
I16
I-3
tp892
I1
tp893
F0.0
s(g154
I0
tp894
F0.0
s((I22
I36
I25
I0
tp895
I1
tp896
I0
s(g158
I1
tp897
F0.0
s(g160
I1
tp898
I0
s((I29
I33
I20
I-3
tp899
I1
tp900
F0.0
s(g162
I0
tp901
F0.0
s(g166
I0
tp902
I0
s((I27
I4
I20
I5
tp903
I0
tp904
F0.0
s(g168
I0
tp905
F0.0
s(g845
I1
tp906
F0.0
s(g170
I1
tp907
F0.0
s((I20
I41
I20
I-4
tp908
I1
tp909
I0
s(g176
I0
tp910
I0
s((I24
I12
I21
I-3
tp911
I0
tp912
I0
s(g178
I0
tp913
F0.0
s(g304
I0
tp914
I0
s((I25
I3
I22
I2
tp915
I0
tp916
I0
s((I22
I37
I18
I-3
tp917
I0
tp918
F0.0
s(g185
I0
tp919
I0
s((I26
I22
I18
I2
tp920
I0
tp921
I0
s(g191
I1
tp922
F0.0
s(g195
I0
tp923
F0.0
s(g199
I1
tp924
I0
s(g201
I0
tp925
F0.0
s((I31
I26
I24
I-3
tp926
I0
tp927
F0.0
s((I30
I21
I19
I-3
tp928
I0
tp929
F0.0
s((I30
I12
I18
I0
tp930
I1
tp931
I0
s(g207
I0
tp932
F0.0
s(g209
I1
tp933
F0.0
s((I25
I22
I20
I-3
tp934
I0
tp935
F0.0
s(g213
I1
tp936
F0.0
s(g215
I1
tp937
I0
s((I29
I4
I26
I2
tp938
I0
tp939
F0.0
s(g661
I0
tp940
F0.0
s((I29
I8
I25
I-3
tp941
I1
tp942
I0
s(g219
I1
tp943
I0
s(g402
I0
tp944
I0
s(g225
I1
tp945
F0.0
s(g229
I1
tp946
F0.0
s(g694
I0
tp947
F0.0
s(g235
I0
tp948
I0
s(g887
I1
tp949
I0
s(g239
I0
tp950
F0.0
s(g243
I0
tp951
F0.0
s(g247
I0
tp952
I0
s(g28
I0
tp953
F0.0
s((I22
I37
I20
I0
tp954
I1
tp955
F0.0
s(g251
I0
tp956
F0.0
s(g255
I0
tp957
F0.0
s((I29
I29
I20
I-3
tp958
I1
tp959
I0
s(g259
I0
tp960
F0.0
s((I8
I29
I21
I-3
tp961
I1
tp962
F0.0
s((I25
I32
I16
I0
tp963
I1
tp964
F0.0
s((I22
I16
I18
I5
tp965
I1
tp966
F0.0
s((I8
I32
I26
I5
tp967
I1
tp968
F0.0
s((I32
I18
I25
I-3
tp969
I0
tp970
F0.0
s((I30
I12
I20
I-4
tp971
I0
tp972
F0.0
s(g965
I0
tp973
I0
s(g273
I0
tp974
F0.0
s(g205
I1
tp975
I0
s((I24
I35
I19
I-3
tp976
I1
tp977
I0
s((I27
I12
I17
I-3
tp978
I1
tp979
I0
s(g281
I0
tp980
I0
s((I19
I34
I27
I-3
tp981
I1
tp982
I0
s((I30
I20
I21
I1
tp983
I0
tp984
F0.0
s(g729
I0
tp985
F0.0
s((I31
I6
I18
I0
tp986
I1
tp987
F0.0
s(g231
I1
tp988
I0
s(g4
I0
tp989
F0.0
s(g6
I0
tp990
F0.0
s(g288
I1
tp991
I0
s(g10
I0
tp992
F0.0
s(g292
I0
tp993
F0.0
s(g296
I1
tp994
F0.0
s(g840
I1
tp995
I0
s(g308
I1
tp996
I0
s(g22
I0
tp997
I0
s(g310
I1
tp998
F0.0
s(g140
I1
tp999
I0
s(g94
I1
tp1000
F0.0
s(g320
I0
tp1001
I0
s(g120
I1
tp1002
I0
s(g203
I1
tp1003
I0
s(g36
I1
tp1004
I0
s(g330
I1
tp1005
I0
s(g44
I0
tp1006
F0.0
s(g48
I1
tp1007
I0
s(g52
I0
tp1008
I0
s(g336
I0
tp1009
I0
s(g340
I0
tp1010
F0.0
s(g56
I0
tp1011
I0
s(g344
I0
tp1012
F0.0
s(g348
I1
tp1013
I0
s(g38
I0
tp1014
F0.0
s((I32
I23
I24
I0
tp1015
I0
tp1016
F0.0
s(g354
I0
tp1017
I0
s(g26
I0
tp1018
F0.0
s(g66
I1
tp1019
I0
s(g362
I0
tp1020
F0.0
s(g290
I1
tp1021
I0
s(g70
I1
tp1022
I0
s((I19
I39
I18
I1
tp1023
I1
tp1024
I0
s(g76
I0
tp1025
F0.0
s(g370
I0
tp1026
I0
s(g457
I0
tp1027
I0
s(g376
I1
tp1028
F0.0
s(g84
I0
tp1029
I0
s(g382
I1
tp1030
F0.0
s(g92
I1
tp1031
F0.0
s(g96
I0
tp1032
I0
s(g322
I1
tp1033
I0
s(g102
I1
tp1034
I0
s((I16
I45
I26
I-2
tp1035
I1
tp1036
F0.0
s(g591
I1
tp1037
F0.0
s(g106
I0
tp1038
I0
s(g394
I0
tp1039
I0
s(g108
I1
tp1040
F0.0
s(g398
I1
tp1041
F0.0
s(g396
I1
tp1042
I0
s(g112
I1
tp1043
F0.0
s(g364
I0
tp1044
I0
s(g116
I0
tp1045
I0
s(g938
I1
tp1046
I0
s(g410
I1
tp1047
I0
s(g719
I0
tp1048
F0.0
s(g414
I1
tp1049
F0.0
s(g419
I1
tp1050
I0
s(g423
I1
tp1051
F0.0
s((I21
I37
I18
I-3
tp1052
I1
tp1053
I0
s(g431
I1
tp1054
I0
s(g136
I0
tp1055
I0
s(g437
I0
tp1056
F0.0
s(g441
I0
tp1057
F0.0
s(g144
I1
tp1058
F0.0
s(g832
I1
tp1059
I0
s(g680
I1
tp1060
F0.0
s(g739
I1
tp1061
F0.0
s(g152
I1
tp1062
F0.0
s(g447
I0
tp1063
I0
s(g164
I1
tp1064
F0.0
s(g453
I0
tp1065
I0
s(g172
I0
tp1066
I0
s(g174
I0
tp1067
F0.0
s(g180
I1
tp1068
F0.0
s(g183
I1
tp1069
F0.0
s((I20
I40
I26
I0
tp1070
I0
tp1071
F0.0
s(g463
I0
tp1072
F0.0
s(g467
I0
tp1073
I0
s(g187
I0
tp1074
I0
s(g261
I1
tp1075
I0
s(g189
I0
tp1076
I0
s(g193
I0
tp1077
F0.0
s(g473
I0
tp1078
F0.0
s(g197
I1
tp1079
I0
s(g475
I1
tp1080
I0
s(g479
I1
tp1081
I0
s(g481
I1
tp1082
F0.0
s(g485
I1
tp1083
F0.0
s(g487
I0
tp1084
F0.0
s(g489
I1
tp1085
F0.0
s(g491
I0
tp1086
I0
s(g493
I1
tp1087
F0.0
s(g211
I0
tp1088
I0
s(g497
I1
tp1089
I0
s(g501
I0
tp1090
I0
s(g731
I0
tp1091
I0
s(g217
I0
tp1092
F0.0
s(g506
I1
tp1093
I0
s(g510
I0
tp1094
I0
s(g221
I1
tp1095
F0.0
s(g223
I1
tp1096
F0.0
s(g227
I1
tp1097
I0
s(g516
I0
tp1098
I0
s(g233
I0
tp1099
I0
s(g294
I1
tp1100
F0.0
s(g520
I1
tp1101
F0.0
s(g564
I0
tp1102
F0.0
s(g526
I1
tp1103
I0
s(g241
I1
tp1104
F0.0
s((I27
I15
I19
I3
tp1105
I0
tp1106
I0
s(g534
I1
tp1107
F0.0
s(g536
I1
tp1108
F0.0
s(g253
I1
tp1109
I0
s(g257
I1
tp1110
I0
s(g542
I1
tp1111
F0.0
s(g544
I0
tp1112
F0.0
s((I29
I9
I26
I-3
tp1113
I1
tp1114
F0.0
s(g263
I1
tp1115
F0.0
s(g324
I1
tp1116
F0.0
s(g265
I1
tp1117
I0
s(g550
I1
tp1118
I0
s(g328
I0
tp1119
I0
s(g271
I0
tp1120
I0
s(g556
I1
tp1121
F0.0
s(g558
I1
tp1122
I0
s(g684
I0
tp1123
F0.0
s(g275
I1
tp1124
I0
s(g277
I1
tp1125
F0.0
s(g279
I1
tp1126
F0.0
s(g283
I0
tp1127
I0
s(g352
I1
tp1128
I0
s(g574
I1
tp1129
I0
s(g578
I1
tp1130
F0.0
s((I24
I27
I24
I-2
tp1131
I1
tp1132
I0
s(g298
I1
tp1133
F0.0
s(g587
I0
tp1134
I0
s(g350
I0
tp1135
F0.0
s(g1015
I1
tp1136
I0
s(g593
I1
tp1137
I0
s(g306
I0
tp1138
F0.0
s(g595
I0
tp1139
F0.0
s((I18
I4
I21
I-3
tp1140
I0
tp1141
F0.0
s(g597
I1
tp1142
F0.0
s(g314
I0
tp1143
I0
s(g599
I1
tp1144
F0.0
s(g603
I1
tp1145
I0
s(g316
I0
tp1146
F0.0
s(g608
I0
tp1147
I0
s(g34
I1
tp1148
F0.0
s(g326
I1
tp1149
I0
s(g88
I0
tp1150
F0.0
s(g318
I0
tp1151
I0
s(g332
I0
tp1152
I0
s(g616
I0
tp1153
I0
s(g620
I0
tp1154
I0
s(g334
I0
tp1155
F0.0
s(g622
I0
tp1156
I0
s(g624
I1
tp1157
F0.0
s(g346
I1
tp1158
I0
s(g421
I0
tp1159
I0
s(g634
I1
tp1160
F0.0
s(g356
I1
tp1161
I0
s(g576
I0
tp1162
I0
s(g640
I1
tp1163
I0
s(g358
I0
tp1164
I0
s(g360
I1
tp1165
F0.0
s(g645
I1
tp1166
F0.0
s((I18
I36
I24
I1
tp1167
I1
tp1168
F0.0
s(g366
I0
tp1169
F0.0
s(g651
I1
tp1170
F0.0
s(g655
I1
tp1171
F0.0
s(g372
I1
tp1172
F0.0
s(g374
I1
tp1173
F0.0
s(g657
I0
tp1174
I0
s(g68
I0
tp1175
F0.0
s(g378
I0
tp1176
F0.0
s(g665
I1
tp1177
I0
s(g380
I0
tp1178
I0
s(g667
I0
tp1179
I0
s(g384
I0
tp1180
I0
s(g671
I1
tp1181
F0.0
s(g386
I1
tp1182
I0
s(g601
I0
tp1183
I0
s(g674
I0
tp1184
I0
s(g388
I0
tp1185
F0.0
s(g676
I0
tp1186
F0.0
s(g390
I1
tp1187
I0
s(g392
I0
tp1188
F0.0
s(g682
I0
tp1189
I0
s(g338
I0
tp1190
F0.0
s(g686
I1
tp1191
I0
s(g400
I0
tp1192
F0.0
s(g32
I0
tp1193
F0.0
s(g406
I0
tp1194
F0.0
s(g408
I0
tp1195
I0
s(g692
I0
tp1196
F0.0
s(g412
I1
tp1197
I0
s(g416
I0
tp1198
I0
s(g884
I0
tp1199
I0
s(g425
I1
tp1200
F0.0
s(g1113
I0
tp1201
I0
s(g707
I0
tp1202
F0.0
s(g433
I1
tp1203
I0
s(g435
I0
tp1204
I0
s(g711
I0
tp1205
I0
s(g439
I0
tp1206
F0.0
s(g508
I1
tp1207
F0.0
s(g342
I1
tp1208
F0.0
s(g514
I1
tp1209
I0
s(g723
I1
tp1210
F0.0
s(g449
I0
tp1211
F0.0
s(g1023
I0
tp1212
F0.0
s(g451
I0
tp1213
F0.0
s(g727
I0
tp1214
I0
s(g733
I1
tp1215
F0.0
s(g735
I1
tp1216
I0
s(g737
I1
tp1217
F0.0
s(g455
I0
tp1218
I0
s(g741
I1
tp1219
I0
s((I24
I14
I26
I0
tp1220
I0
tp1221
I0
s(g530
I1
tp1222
I0
s(g459
I1
tp1223
I0
s(g461
I1
tp1224
I0
s(g743
I1
tp1225
I0
s(g538
I1
tp1226
I0
s(g753
I0
tp1227
F0.0
s(g469
I1
tp1228
I0
s(g471
I1
tp1229
I0
s(g758
I1
tp1230
I0
s(g1052
I0
tp1231
F0.0
s((I25
I36
I20
I-1
tp1232
I1
tp1233
F0.0
s(g477
I1
tp1234
F0.0
s(g762
I0
tp1235
F0.0
s(g483
I0
tp1236
F0.0
s(g911
I1
tp1237
F0.0
s(g768
I0
tp1238
F0.0
s(g300
I1
tp1239
I0
s(g495
I1
tp1240
F0.0
s(g772
I0
tp1241
F0.0
s(g499
I1
tp1242
F0.0
s(g504
I1
tp1243
F0.0
s(g774
I0
tp1244
F0.0
s(g776
I0
tp1245
I0
s(g778
I1
tp1246
F0.0
s(g512
I1
tp1247
I0
s(g124
I0
tp1248
F0.0
s(g1070
I1
tp1249
I0
s(g783
I0
tp1250
I0
s(g518
I0
tp1251
I0
s(g787
I0
tp1252
I0
s(g12
I0
tp1253
I0
s(g126
I1
tp1254
F0.0
s(g789
I0
tp1255
I0
s(g522
I0
tp1256
I0
s(g524
I0
tp1257
F0.0
s(g528
I0
tp1258
F0.0
s(g796
I0
tp1259
F0.0
s((I29
I26
I20
I0
tp1260
I1
tp1261
F0.0
s(g100
I0
tp1262
I0
s(g812
I0
tp1263
I0
s(g540
I0
tp1264
F0.0
s((I16
I45
I17
I-2
tp1265
I1
tp1266
I0
s(g546
I0
tp1267
I0
s(g40
I1
tp1268
I0
s(g548
I1
tp1269
F0.0
s(g801
I1
tp1270
I0
s(g552
I1
tp1271
I0
s(g803
I0
tp1272
I0
s(g805
I1
tp1273
F0.0
s(g958
I0
tp1274
F0.0
s(g554
I0
tp1275
F0.0
s(g810
I1
tp1276
F0.0
s(g1260
I0
tp1277
I0
s(g560
I1
tp1278
I0
s(g628
I0
tp1279
F0.0
s(g566
I1
tp1280
I0
s(g568
I1
tp1281
F0.0
s(g114
I1
tp1282
F0.0
s(g570
I1
tp1283
I0
s(g572
I0
tp1284
I0
s(g819
I1
tp1285
F0.0
s((I5
I27
I18
I5
tp1286
I0
tp1287
F0.0
s(g826
I1
tp1288
I0
s(g582
I1
tp1289
I0
s(g584
I1
tp1290
I0
s(g830
I0
tp1291
I0
s(g978
I0
tp1292
F0.0
s(g1265
I0
tp1293
F0.0
s(g967
I0
tp1294
I0
s(g1286
I1
tp1295
I0
s(g835
I1
tp1296
I0
s(g837
I0
tp1297
F0.0
s(g1232
I0
tp1298
I0
s(g843
I1
tp1299
I0
s(g605
I0
tp1300
F0.0
s(g847
I0
tp1301
I0
s(g610
I1
tp1302
F0.0
s(g612
I1
tp1303
F0.0
s(g853
I1
tp1304
I0
s(g614
I1
tp1305
I0
s(g858
I0
tp1306
I0
s(g688
I0
tp1307
F0.0
s((I20
I22
I18
I0
tp1308
I0
tp1309
I0
s(g863
I1
tp1310
F0.0
s(g1105
I1
tp1311
F0.0
s(g867
I0
tp1312
F0.0
s(g626
I0
tp1313
F0.0
s(g870
I0
tp1314
I0
s(g696
I0
tp1315
F0.0
s((I23
I11
I22
I-3
tp1316
I0
tp1317
I0
s(g874
I0
tp1318
I0
s(g630
I0
tp1319
F0.0
s(g632
I0
tp1320
I0
s(g701
I1
tp1321
F0.0
s(g636
I0
tp1322
F0.0
s(g879
I1
tp1323
I0
s(g1131
I0
tp1324
F0.0
s(g638
I1
tp1325
I0
s(g764
I1
tp1326
I0
s(g881
I1
tp1327
F0.0
s(g1167
I0
tp1328
I0
s(g643
I0
tp1329
I0
s(g824
I0
tp1330
F0.0
s(g150
I1
tp1331
F0.0
s(g649
I0
tp1332
I0
s(g653
I1
tp1333
I0
s(g892
I0
tp1334
I0
s(g895
I0
tp1335
F0.0
s(g659
I1
tp1336
I0
s(g899
I0
tp1337
I0
s(g663
I0
tp1338
F0.0
s(g903
I1
tp1339
I0
s(g669
I1
tp1340
F0.0
s(g908
I0
tp1341
F0.0
s(g445
I1
tp1342
I0
s(g1316
I1
tp1343
F0.0
s(g678
I1
tp1344
I0
s(g915
I1
tp1345
F0.0
s(g917
I1
tp1346
I0
s(g860
I1
tp1347
I0
s(g368
I0
tp1348
I0
s(g920
I1
tp1349
F0.0
s(g690
I0
tp1350
I0
s(g302
I1
tp1351
I0
s(g429
I0
tp1352
I0
s(g443
I1
tp1353
F0.0
s(g926
I1
tp1354
I0
s(g1035
I0
tp1355
I0
s(g703
I1
tp1356
I0
s(g705
I1
tp1357
F0.0
s(g934
I1
tp1358
I0
s(g709
I1
tp1359
F0.0
s(g713
I1
tp1360
I0
s(g941
I0
tp1361
F0.0
s(g715
I0
tp1362
F0.0
s(g580
I1
tp1363
F0.0
s(g721
I1
tp1364
F0.0
s(g618
I0
tp1365
I0
s(g725
I1
tp1366
F0.0
s(g794
I1
tp1367
F0.0
s(g954
I0
tp1368
I0
s(g745
I1
tp1369
F0.0
s(g747
I0
tp1370
I0
s(g1308
I1
tp1371
F0.0
s(g749
I1
tp1372
F0.0
s(g961
I0
tp1373
I0
s(g751
I1
tp1374
F0.0
s(g963
I0
tp1375
I0
s(g755
I1
tp1376
I0
s(g14
I0
tp1377
F0.0
s(g969
I1
tp1378
I0
s(g760
I0
tp1379
I0
s(g971
I1
tp1380
I0
s(g821
I0
tp1381
F0.0
s(g928
I1
tp1382
I0
s(g766
I1
tp1383
F0.0
s(g1140
I1
tp1384
I0
s(g930
I0
tp1385
F0.0
s(g770
I0
tp1386
I0
s(g976
I0
tp1387
F0.0
s(g1220
I1
tp1388
F0.0
s(g981
I0
tp1389
F0.0
s(g816
I0
tp1390
I0
s(g983
I1
tp1391
I0
s(g781
I1
tp1392
F0.0
s(g986
I0
tp1393
I0
s.