ccollections
defaultdict
p0
(c__builtin__
int
p1
tp2
Rp3
((I23
I38
I25
I-1
tp4
I0
tp5
I0
s((I15
I46
I24
I-2
tp6
I1
tp7
I0
s((I31
I27
I19
I-1
tp8
I0
tp9
I0
s((I32
I2
I27
I1
tp10
I0
tp11
F0.0
s((I26
I5
I18
I0
tp12
I1
tp13
F0.0
s((I23
I37
I19
I-1
tp14
I0
tp15
F0.0
s((I21
I14
I18
I-3
tp16
I0
tp17
F0.0
s((I21
I41
I15
I-3
tp18
I1
tp19
I0
s((I23
I14
I22
I5
tp20
I0
tp21
I0
s((I14
I37
I27
I-3
tp22
I1
tp23
I0
s((I28
I34
I22
I-4
tp24
I1
tp25
I0
s((I28
I30
I17
I-1
tp26
I0
tp27
I0
s((I29
I12
I27
I4
tp28
I1
tp29
I0
s((I26
I2
I22
I3
tp30
I0
tp31
I0
s((I24
I30
I22
I-3
tp32
I1
tp33
I0
s((I23
I37
I21
I-2
tp34
I1
tp35
F0.0
s((I22
I27
I22
I-3
tp36
I0
tp37
F0.0
s((I29
I5
I24
I-3
tp38
I0
tp39
I0
s((I12
I33
I24
I-1
tp40
I0
tp41
I0
s((I26
I11
I22
I-3
tp42
I0
tp43
F0.0
s((I30
I19
I27
I2
tp44
I1
tp45
F0.0
s((I24
I2
I17
I0
tp46
I1
tp47
F0.0
s((I23
I35
I19
I1
tp48
I0
tp49
F0.0
s((I22
I24
I22
I-3
tp50
I0
tp51
F0.0
s((I27
I25
I22
I3
tp52
I1
tp53
F0.0
s((I32
I14
I19
I1
tp54
I0
tp55
I0
s((I16
I45
I25
I-2
tp56
I0
tp57
I0
s((I29
I29
I19
I-3
tp58
I1
tp59
I0
s((I22
I24
I22
I0
tp60
I0
tp61
I0
s((I17
I36
I24
I-1
tp62
I0
tp63
I0
s((I23
I19
I18
I5
tp64
I1
tp65
I0
s((I32
I10
I27
I2
tp66
I0
tp67
F0.0
s((I31
I18
I19
I-3
tp68
I0
tp69
F0.0
s((I22
I41
I19
I-4
tp70
I0
tp71
F0.0
s((I32
I30
I25
I-3
tp72
I0
tp73
F0.0
s((I26
I11
I17
I3
tp74
I0
tp75
F0.0
s((I30
I31
I21
I-3
tp76
I1
tp77
F0.0
s((I18
I28
I19
I-3
tp78
I1
tp79
I0
s((I16
I45
I24
I-2
tp80
I1
tp81
I0
s((I30
I4
I24
I-1
tp82
I1
tp83
I0
s((I12
I40
I18
I4
tp84
I1
tp85
F0.0
s((I17
I39
I22
I-3
tp86
I0
tp87
F0.0
s((I28
I5
I22
I0
tp88
I0
tp89
F0.0
s((I24
I36
I18
I-4
tp90
I1
tp91
F0.0
s((I25
I34
I19
I-4
tp92
I0
tp93
F0.0
s((I26
I19
I17
I5
tp94
I0
tp95
I0
s((I16
I39
I24
I-3
tp96
I1
tp97
I0
s((I17
I10
I26
I5
tp98
I0
tp99
F0.0
s((I19
I29
I22
I-2
tp100
I1
tp101
F0.0
s((I29
I12
I24
I0
tp102
I1
tp103
F0.0
s((I29
I30
I22
I1
tp104
I1
tp105
F0.0
s((I31
I4
I24
I0
tp106
I1
tp107
F0.0
s((I31
I15
I24
I-3
tp108
I1
tp109
F0.0
s((I23
I16
I25
I-3
tp110
I1
tp111
I0
s((I33
I27
I25
I0
tp112
I0
tp113
F0.0
s((I25
I6
I22
I4
tp114
I0
tp115
F0.0
s((I8
I5
I26
I5
tp116
I0
tp117
F0.0
s((I14
I32
I27
I2
tp118
I0
tp119
I0
s((I26
I25
I24
I-3
tp120
I1
tp121
I0
s((I21
I35
I26
I-3
tp122
I0
tp123
I0
s((I29
I31
I22
I-3
tp124
I0
tp125
F0.0
s((I25
I10
I22
I5
tp126
I0
tp127
I0
s((I29
I25
I15
I-3
tp128
I0
tp129
I0
s((I14
I17
I21
I5
tp130
I0
tp131
I0
s((I28
I17
I22
I3
tp132
I0
tp133
F0.0
s((I15
I43
I17
I1
tp134
I1
tp135
F0.0
s((I32
I25
I17
I0
tp136
I0
tp137
I0
s((I25
I36
I25
I-3
tp138
I1
tp139
F0.0
s((I11
I28
I22
I-3
tp140
I0
tp141
F0.0
s((I24
I36
I21
I-4
tp142
I1
tp143
F0.0
s((I28
I18
I24
I-3
tp144
I1
tp145
F0.0
s(g112
I1
tp146
I0
s((I14
I33
I22
I5
tp147
I1
tp148
I0
s((I15
I43
I27
I1
tp149
I1
tp150
F0.0
s((I16
I44
I24
I0
tp151
I1
tp152
I0
s((I16
I30
I19
I5
tp153
I1
tp154
F0.0
s((I22
I20
I24
I-3
tp155
I1
tp156
F0.0
s((I30
I7
I24
I-3
tp157
I0
tp158
F0.0
s((I18
I19
I21
I5
tp159
I1
tp160
I0
s((I9
I30
I22
I5
tp161
I0
tp162
I0
s((I31
I28
I22
I-4
tp163
I0
tp164
F0.0
s((I30
I10
I22
I3
tp165
I1
tp166
F0.0
s((I23
I38
I22
I-1
tp167
I0
tp168
I0
s(g30
I1
tp169
F0.0
s((I22
I39
I19
I-3
tp170
I0
tp171
F0.0
s((I19
I39
I22
I-1
tp172
I0
tp173
F0.0
s((I30
I24
I27
I-3
tp174
I0
tp175
I0
s((I24
I30
I15
I3
tp176
I1
tp177
F0.0
s((I24
I35
I27
I-3
tp178
I1
tp179
F0.0
s((I19
I43
I27
I-3
tp180
I1
tp181
F0.0
s((I28
I24
I22
I-3
tp182
I1
tp183
I0
s((I29
I33
I25
I-3
tp184
I0
tp185
I0
s((I15
I46
I18
I-2
tp186
I1
tp187
I0
s((I21
I11
I19
I5
tp188
I1
tp189
F0.0
s((I32
I12
I22
I0
tp190
I0
tp191
I0
s((I24
I10
I27
I5
tp192
I1
tp193
F0.0
s((I26
I16
I27
I5
tp194
I0
tp195
I0
s((I16
I14
I21
I-3
tp196
I1
tp197
I0
s((I31
I24
I27
I0
tp198
I0
tp199
F0.0
s((I24
I5
I22
I3
tp200
I0
tp201
F0.0
s((I19
I27
I27
I-3
tp202
I0
tp203
I0
s((I24
I35
I17
I-3
tp204
I1
tp205
F0.0
s((I32
I14
I27
I-3
tp206
I1
tp207
I0
s((I19
I23
I24
I0
tp208
I1
tp209
F0.0
s((I30
I29
I27
I0
tp210
I1
tp211
I0
s((I24
I28
I26
I2
tp212
I1
tp213
F0.0
s((I24
I8
I19
I-4
tp214
I0
tp215
I0
s((I23
I4
I17
I-3
tp216
I0
tp217
F0.0
s((I16
I13
I18
I2
tp218
I0
tp219
F0.0
s((I26
I10
I25
I-3
tp220
I0
tp221
I0
s((I29
I21
I22
I0
tp222
I1
tp223
F0.0
s((I16
I45
I27
I-2
tp224
I1
tp225
F0.0
s((I25
I1
I27
I3
tp226
I1
tp227
F0.0
s((I27
I33
I27
I-3
tp228
I1
tp229
I0
s((I22
I2
I18
I-3
tp230
I0
tp231
I0
s((I16
I43
I24
I1
tp232
I1
tp233
I0
s((I29
I12
I27
I-1
tp234
I0
tp235
F0.0
s((I28
I10
I24
I2
tp236
I0
tp237
I0
s((I32
I11
I22
I0
tp238
I1
tp239
F0.0
s((I24
I38
I19
I-1
tp240
I0
tp241
F0.0
s((I14
I14
I18
I5
tp242
I0
tp243
I0
s((I31
I6
I27
I-4
tp244
I1
tp245
F0.0
s((I27
I9
I27
I2
tp246
I1
tp247
I0
s((I27
I24
I21
I4
tp248
I0
tp249
F0.0
s((I25
I16
I19
I0
tp250
I1
tp251
I0
s((I28
I8
I22
I2
tp252
I0
tp253
F0.0
s((I30
I2
I19
I-1
tp254
I0
tp255
I0
s((I15
I20
I18
I-3
tp256
I1
tp257
F0.0
s((I15
I28
I18
I-3
tp258
I0
tp259
F0.0
s((I30
I5
I25
I0
tp260
I0
tp261
F0.0
s((I22
I38
I15
I0
tp262
I0
tp263
I0
s((I12
I36
I22
I-3
tp264
I1
tp265
F0.0
s((I27
I34
I21
I-4
tp266
I1
tp267
F0.0
s(g159
I0
tp268
F0.0
s((I30
I20
I22
I0
tp269
I1
tp270
I0
s((I22
I40
I25
I-3
tp271
I1
tp272
I0
s((I30
I24
I25
I3
tp273
I1
tp274
I0
s((I14
I41
I22
I3
tp275
I0
tp276
F0.0
s((I18
I40
I26
I-3
tp277
I1
tp278
I0
s((I30
I8
I22
I3
tp279
I0
tp280
I0
s((I23
I13
I25
I0
tp281
I0
tp282
I0
s((I25
I27
I22
I0
tp283
I0
tp284
I0
s((I9
I21
I22
I4
tp285
I1
tp286
I0
s((I20
I34
I24
I-3
tp287
I0
tp288
I0
s((I33
I12
I27
I-1
tp289
I0
tp290
F0.0
s((I25
I19
I22
I-3
tp291
I0
tp292
I0
s((I13
I31
I18
I3
tp293
I1
tp294
F0.0
s((I29
I4
I19
I-4
tp295
I1
tp296
I0
s((I30
I22
I22
I-3
tp297
I1
tp298
I0
s((I30
I2
I24
I2
tp299
I1
tp300
I0
s((I32
I16
I19
I-1
tp301
I0
tp302
F0.0
s((I22
I40
I22
I-3
tp303
I1
tp304
I0
s((I15
I35
I27
I-1
tp305
I0
tp306
F0.0
s((I31
I19
I22
I-3
tp307
I0
tp308
I0
s((I27
I21
I18
I5
tp309
I1
tp310
I0
s((I16
I44
I18
I0
tp311
I1
tp312
F0.0
s((I20
I40
I22
I0
tp313
I0
tp314
F0.0
s((I18
I10
I18
I-4
tp315
I1
tp316
I0
s((I19
I32
I22
I-3
tp317
I0
tp318
F0.0
s((I29
I32
I22
I-2
tp319
I1
tp320
F0.0
s((I15
I46
I19
I-2
tp321
I1
tp322
F0.0
s((I18
I42
I21
I-4
tp323
I0
tp324
F0.0
s((I28
I31
I18
I-1
tp325
I0
tp326
I0
s((I32
I16
I22
I0
tp327
I1
tp328
I0
s((I30
I27
I21
I2
tp329
I0
tp330
I0
s((I31
I29
I18
I-3
tp331
I0
tp332
F0.0
s((I23
I12
I15
I5
tp333
I0
tp334
I0
s((I17
I16
I18
I-1
tp335
I1
tp336
I0
s((I18
I44
I15
I-3
tp337
I0
tp338
I0
s((I28
I20
I27
I-3
tp339
I0
tp340
F0.0
s((I21
I19
I25
I5
tp341
I0
tp342
I0
s((I31
I27
I17
I-3
tp343
I1
tp344
I0
s((I22
I25
I27
I-3
tp345
I1
tp346
F0.0
s((I18
I44
I19
I-3
tp347
I1
tp348
F0.0
s((I31
I29
I21
I-1
tp349
I1
tp350
I0
s((I15
I43
I18
I1
tp351
I1
tp352
I0
s((I16
I30
I27
I-3
tp353
I1
tp354
F0.0
s((I17
I12
I21
I0
tp355
I1
tp356
I0
s((I27
I16
I26
I4
tp357
I1
tp358
I0
s((I27
I8
I24
I5
tp359
I1
tp360
F0.0
s((I16
I43
I26
I1
tp361
I0
tp362
I0
s((I19
I42
I19
I-1
tp363
I0
tp364
I0
s((I14
I41
I24
I3
tp365
I0
tp366
F0.0
s((I13
I4
I21
I-3
tp367
I0
tp368
I0
s((I31
I27
I27
I-3
tp369
I1
tp370
I0
s((I29
I21
I27
I3
tp371
I1
tp372
F0.0
s((I24
I36
I19
I1
tp373
I0
tp374
I0
s((I12
I7
I26
I5
tp375
I1
tp376
I0
s((I19
I41
I18
I-3
tp377
I0
tp378
I0
s((I17
I1
I21
I-3
tp379
I1
tp380
I0
s((I31
I22
I27
I-1
tp381
I0
tp382
I0
s((I24
I15
I22
I-4
tp383
I1
tp384
F0.0
s((I29
I23
I26
I-3
tp385
I0
tp386
I0
s((I31
I13
I22
I-3
tp387
I1
tp388
I0
s((I18
I24
I19
I1
tp389
I0
tp390
I0
s((I31
I24
I18
I2
tp391
I0
tp392
F0.0
s((I21
I7
I17
I5
tp393
I1
tp394
F0.0
s((I27
I14
I27
I-3
tp395
I0
tp396
F0.0
s((I29
I32
I27
I-3
tp397
I0
tp398
I0
s((I23
I22
I21
I5
tp399
I1
tp400
I0
s((I33
I20
I15
I0
tp401
I1
tp402
I0
s((I23
I28
I24
I1
tp403
I0
tp404
I0
s((I28
I27
I27
I3
tp405
I0
tp406
I0
s((I27
I10
I19
I5
tp407
I1
tp408
I0
s((I15
I42
I22
I2
tp409
I1
tp410
F0.0
s((I25
I36
I15
I-3
tp411
I0
tp412
F0.0
s((I27
I32
I19
I-1
tp413
I0
tp414
I0
s((I19
I43
I22
I-3
tp415
I0
tp416
F0.0
s((I22
I21
I22
I0
tp417
I1
tp418
F0.0
s((I21
I0
I22
I-3
tp419
I1
tp420
I0
s((I29
I13
I17
I0
tp421
I0
tp422
F0.0
s((I20
I3
I22
I5
tp423
I0
tp424
F0.0
s((I14
I31
I24
I-3
tp425
I1
tp426
I0
s((I25
I21
I22
I-3
tp427
I0
tp428
I0
s((I21
I37
I27
I-3
tp429
I1
tp430
F0.0
s((I29
I11
I22
I-1
tp431
I0
tp432
F0.0
s((I31
I19
I27
I-3
tp433
I1
tp434
I0
s((I21
I37
I17
I-3
tp435
I0
tp436
I0
s((I30
I25
I19
I2
tp437
I1
tp438
F0.0
s((I29
I7
I25
I-3
tp439
I0
tp440
I0
s((I24
I30
I24
I-1
tp441
I1
tp442
I0
s(g200
I1
tp443
I0
s(g405
I1
tp444
F0.0
s((I19
I37
I26
I0
tp445
I0
tp446
I0
s((I31
I4
I15
I-4
tp447
I0
tp448
F0.0
s((I32
I26
I18
I0
tp449
I0
tp450
F0.0
s((I18
I36
I22
I2
tp451
I1
tp452
I0
s((I33
I26
I22
I-1
tp453
I0
tp454
I0
s((I19
I4
I18
I2
tp455
I1
tp456
F0.0
s((I20
I29
I22
I-1
tp457
I1
tp458
I0
s((I27
I14
I15
I5
tp459
I0
tp460
F0.0
s(I0
I0
tp461
F0.0
s((I19
I40
I21
I-2
tp462
I1
tp463
F0.0
s((I22
I11
I18
I0
tp464
I0
tp465
I0
s((I13
I22
I18
I4
tp466
I1
tp467
F0.0
s((I25
I22
I27
I-3
tp468
I0
tp469
I0
s((I32
I15
I22
I-3
tp470
I0
tp471
I0
s((I30
I10
I24
I3
tp472
I0
tp473
F0.0
s((I12
I40
I27
I4
tp474
I1
tp475
F0.0
s((I22
I32
I24
I-4
tp476
I0
tp477
F0.0
s((I26
I7
I27
I-3
tp478
I0
tp479
F0.0
s((I15
I47
I22
I-3
tp480
I0
tp481
F0.0
s((I30
I20
I26
I-1
tp482
I1
tp483
F0.0
s((I27
I34
I18
I-4
tp484
I1
tp485
I0
s((I27
I22
I24
I0
tp486
I1
tp487
I0
s((I30
I13
I22
I3
tp488
I1
tp489
F0.0
s((I26
I4
I27
I-3
tp490
I1
tp491
I0
s((I32
I15
I27
I1
tp492
I1
tp493
F0.0
s((I28
I16
I22
I-3
tp494
I0
tp495
I0
s((I16
I45
I21
I-2
tp496
I1
tp497
I0
s((I16
I45
I18
I-2
tp498
I0
tp499
F0.0
s((I28
I3
I18
I-3
tp500
I1
tp501
F0.0
s((I15
I9
I21
I3
tp502
I1
tp503
I0
s((I22
I40
I27
I-3
tp504
I1
tp505
F0.0
s((I29
I17
I27
I0
tp506
I1
tp507
F0.0
s((I22
I13
I26
I5
tp508
I1
tp509
I0
s((I30
I2
I22
I-3
tp510
I0
tp511
F0.0
s((I23
I17
I22
I5
tp512
I0
tp513
I0
s((I27
I8
I22
I-3
tp514
I1
tp515
I0
s(g264
I0
tp516
I0
s((I19
I26
I19
I-1
tp517
I1
tp518
I0
s((I23
I8
I19
I5
tp519
I0
tp520
I0
s((I28
I14
I24
I-3
tp521
I1
tp522
I0
s((I3
I3
I26
I5
tp523
I0
tp524
I0
s((I30
I18
I26
I2
tp525
I0
tp526
I0
s((I28
I4
I22
I-3
tp527
I1
tp528
F0.0
s((I15
I42
I27
I2
tp529
I1
tp530
I0
s(g220
I1
tp531
F0.0
s((I19
I27
I22
I2
tp532
I1
tp533
F0.0
s((I24
I18
I19
I-3
tp534
I1
tp535
I0
s((I26
I25
I26
I-3
tp536
I1
tp537
F0.0
s((I18
I26
I24
I-3
tp538
I0
tp539
F0.0
s((I28
I30
I27
I0
tp540
I1
tp541
F0.0
s((I33
I4
I27
I-1
tp542
I0
tp543
I0
s((I26
I35
I27
I0
tp544
I1
tp545
F0.0
s((I14
I37
I18
I-3
tp546
I0
tp547
F0.0
s((I28
I18
I22
I-3
tp548
I1
tp549
F0.0
s((I15
I33
I22
I-3
tp550
I1
tp551
F0.0
s((I15
I0
I22
I5
tp552
I1
tp553
I0
s((I27
I22
I19
I4
tp554
I0
tp555
I0
s((I32
I17
I15
I2
tp556
I0
tp557
I0
s((I25
I7
I22
I5
tp558
I1
tp559
F0.0
s((I17
I34
I22
I2
tp560
I1
tp561
F0.0
s((I20
I43
I19
I-4
tp562
I0
tp563
I0
s((I20
I7
I18
I-1
tp564
I0
tp565
F0.0
s((I28
I7
I15
I-3
tp566
I0
tp567
F0.0
s((I28
I20
I19
I-4
tp568
I1
tp569
F0.0
s((I15
I46
I22
I-2
tp570
I0
tp571
F0.0
s((I21
I38
I21
I-4
tp572
I0
tp573
F0.0
s((I12
I6
I21
I5
tp574
I1
tp575
F0.0
s(g425
I0
tp576
F0.0
s((I19
I43
I25
I-3
tp577
I1
tp578
F0.0
s((I27
I2
I27
I-1
tp579
I0
tp580
F0.0
s((I32
I22
I15
I-3
tp581
I0
tp582
F0.0
s((I15
I46
I19
I-3
tp583
I0
tp584
I0
s((I18
I16
I18
I5
tp585
I1
tp586
I0
s((I25
I37
I27
I-3
tp587
I0
tp588
F0.0
s(g104
I0
tp589
I0
s((I26
I33
I15
I0
tp590
I1
tp591
I0
s((I16
I45
I22
I-2
tp592
I1
tp593
F0.0
s((I30
I16
I27
I-4
tp594
I0
tp595
F0.0
s((I27
I4
I27
I0
tp596
I1
tp597
I0
s((I30
I22
I17
I3
tp598
I0
tp599
F0.0
s((I25
I10
I15
I-3
tp600
I0
tp601
I0
s(g4
I1
tp602
F0.0
s((I22
I38
I18
I-3
tp603
I1
tp604
F0.0
s(g6
I0
tp605
F0.0
s((I29
I5
I15
I-1
tp606
I1
tp607
F0.0
s(g12
I0
tp608
I0
s((I23
I13
I19
I3
tp609
I0
tp610
F0.0
s(g16
I1
tp611
I0
s(g20
I1
tp612
F0.0
s(g250
I0
tp613
F0.0
s(g149
I0
tp614
I0
s((I27
I13
I22
I-3
tp615
I1
tp616
I0
s(g32
I0
tp617
F0.0
s((I30
I8
I27
I4
tp618
I1
tp619
F0.0
s(g34
I0
tp620
I0
s((I28
I4
I22
I-4
tp621
I0
tp622
F0.0
s((I32
I12
I24
I0
tp623
I0
tp624
F0.0
s((I30
I12
I19
I3
tp625
I1
tp626
I0
s(g504
I0
tp627
I0
s(g42
I1
tp628
I0
s(g46
I0
tp629
I0
s((I15
I46
I15
I-2
tp630
I0
tp631
I0
s(g48
I1
tp632
I0
s((I25
I8
I18
I-3
tp633
I1
tp634
I0
s(g56
I1
tp635
F0.0
s(g60
I1
tp636
F0.0
s(g64
I0
tp637
F0.0
s((I22
I9
I19
I-4
tp638
I0
tp639
I0
s(g70
I1
tp640
I0
s(g72
I1
tp641
I0
s(g76
I0
tp642
I0
s((I16
I25
I18
I1
tp643
I0
tp644
F0.0
s(g365
I1
tp645
F0.0
s((I16
I45
I27
I-1
tp646
I0
tp647
F0.0
s((I15
I34
I18
I0
tp648
I1
tp649
I0
s(g18
I0
tp650
F0.0
s(g594
I1
tp651
I0
s((I26
I6
I19
I-4
tp652
I1
tp653
F0.0
s(g92
I1
tp654
I0
s((I16
I45
I26
I-2
tp655
I1
tp656
I0
s((I24
I6
I27
I5
tp657
I0
tp658
I0
s(g98
I1
tp659
I0
s(g102
I0
tp660
I0
s((I27
I6
I22
I5
tp661
I0
tp662
I0
s(g106
I0
tp663
I0
s(g108
I0
tp664
I0
s(g110
I0
tp665
F0.0
s((I16
I45
I17
I-2
tp666
I0
tp667
F0.0
s((I10
I36
I24
I-3
tp668
I1
tp669
I0
s((I10
I38
I22
I5
tp670
I0
tp671
I0
s((I18
I17
I18
I-3
tp672
I0
tp673
I0
s(g116
I1
tp674
I0
s((I23
I37
I22
I0
tp675
I0
tp676
I0
s(g126
I1
tp677
F0.0
s(g128
I1
tp678
F0.0
s(g132
I1
tp679
I0
s(g136
I1
tp680
F0.0
s((I16
I44
I22
I0
tp681
I1
tp682
F0.0
s(g138
I0
tp683
I0
s(g140
I1
tp684
I0
s(g142
I0
tp685
I0
s(g144
I0
tp686
I0
s(g94
I1
tp687
F0.0
s(g10
I1
tp688
I0
s((I26
I34
I22
I-2
tp689
I0
tp690
I0
s((I18
I41
I22
I-3
tp691
I0
tp692
F0.0
s((I26
I30
I26
I0
tp693
I0
tp694
F0.0
s((I19
I32
I19
I4
tp695
I0
tp696
F0.0
s(g155
I0
tp697
I0
s((I28
I16
I17
I-3
tp698
I0
tp699
F0.0
s((I19
I3
I22
I5
tp700
I1
tp701
F0.0
s(g157
I1
tp702
I0
s((I16
I44
I21
I0
tp703
I0
tp704
I0
s((I30
I28
I22
I0
tp705
I1
tp706
F0.0
s((I21
I35
I22
I-3
tp707
I1
tp708
I0
s(g165
I0
tp709
I0
s((I18
I40
I27
I-3
tp710
I1
tp711
F0.0
s(g134
I0
tp712
I0
s((I32
I23
I22
I2
tp713
I1
tp714
I0
s(g172
I1
tp715
I0
s(g174
I1
tp716
F0.0
s(g178
I0
tp717
I0
s(g182
I0
tp718
F0.0
s(g184
I1
tp719
F0.0
s(g186
I0
tp720
F0.0
s((I25
I17
I24
I-3
tp721
I1
tp722
F0.0
s(g190
I1
tp723
F0.0
s(g194
I1
tp724
F0.0
s(g198
I1
tp725
I0
s(g202
I1
tp726
F0.0
s((I26
I27
I15
I-3
tp727
I1
tp728
F0.0
s(g226
I0
tp729
I0
s(g204
I0
tp730
I0
s((I16
I12
I18
I-3
tp731
I1
tp732
F0.0
s((I27
I32
I17
I-3
tp733
I1
tp734
I0
s((I26
I21
I25
I5
tp735
I1
tp736
I0
s(g36
I1
tp737
I0
s(g273
I0
tp738
F0.0
s((I18
I36
I22
I0
tp739
I1
tp740
I0
s((I26
I20
I24
I2
tp741
I0
tp742
I0
s(g52
I0
tp743
I0
s((I24
I33
I26
I-3
tp744
I0
tp745
F0.0
s((I29
I2
I25
I3
tp746
I1
tp747
F0.0
s((I9
I38
I24
I5
tp748
I0
tp749
I0
s((I12
I25
I22
I0
tp750
I1
tp751
I0
s((I27
I3
I19
I-3
tp752
I0
tp753
F0.0
s(g234
I1
tp754
I0
s((I15
I28
I24
I0
tp755
I1
tp756
F0.0
s((I22
I33
I22
I0
tp757
I1
tp758
F0.0
s(g238
I0
tp759
I0
s(g8
I1
tp760
F0.0
s(g54
I1
tp761
F0.0
s(g246
I0
tp762
F0.0
s(g14
I1
tp763
I0
s(g248
I1
tp764
I0
s(g24
I0
tp765
F0.0
s(g26
I1
tp766
F0.0
s((I18
I40
I17
I-3
tp767
I1
tp768
F0.0
s(g210
I0
tp769
F0.0
s(g252
I1
tp770
I0
s(g28
I0
tp771
F0.0
s(g38
I1
tp772
F0.0
s(g258
I1
tp773
I0
s(g260
I1
tp774
I0
s(g40
I1
tp775
F0.0
s(g44
I0
tp776
I0
s(g50
I1
tp777
I0
s(g275
I1
tp778
I0
s(g58
I0
tp779
F0.0
s(g277
I0
tp780
F0.0
s(g62
I1
tp781
F0.0
s(g66
I1
tp782
I0
s(g68
I1
tp783
I0
s(g283
I1
tp784
F0.0
s((I18
I38
I22
I2
tp785
I0
tp786
I0
s(g74
I1
tp787
I0
s(g78
I0
tp788
F0.0
s(g289
I1
tp789
I0
s(g393
I0
tp790
I0
s(g293
I0
tp791
I0
s(g84
I0
tp792
I0
s(g86
I1
tp793
I0
s(g88
I1
tp794
I0
s((I21
I21
I19
I-3
tp795
I0
tp796
I0
s(g90
I0
tp797
I0
s(g96
I0
tp798
F0.0
s(g309
I0
tp799
F0.0
s(g313
I1
tp800
I0
s(g317
I1
tp801
I0
s(g319
I0
tp802
I0
s(g100
I0
tp803
I0
s(g703
I1
tp804
F0.0
s(g114
I1
tp805
I0
s(g118
I1
tp806
F0.0
s(g120
I0
tp807
F0.0
s(g122
I1
tp808
F0.0
s(g161
I1
tp809
F0.0
s(g124
I1
tp810
I0
s(g329
I1
tp811
F0.0
s(g130
I1
tp812
F0.0
s(g335
I0
tp813
F25.0
s(g339
I1
tp814
I0
s(g341
I1
tp815
F0.0
s(g657
I1
tp816
F0.0
s(g345
I0
tp817
I0
s(g349
I0
tp818
F0.0
s(g351
I0
tp819
F0.0
s(g542
I1
tp820
F0.0
s(g357
I0
tp821
F0.0
s(g147
I0
tp822
F0.0
s(g361
I1
tp823
F0.0
s(g363
I1
tp824
F0.0
s(g151
I0
tp825
F0.0
s(g625
I0
tp826
F0.0
s(g373
I1
tp827
F0.0
s(g383
I0
tp828
I0
s(g387
I0
tp829
F0.0
s(g163
I1
tp830
I0
s(g389
I1
tp831
F0.0
s(g167
I1
tp832
F0.0
s(g170
I1
tp833
I0
s(g236
I1
tp834
F0.0
s(g176
I0
tp835
I0
s(g399
I0
tp836
F0.0
s(g188
I0
tp837
I0
s(g403
I1
tp838
F0.0
s(g192
I0
tp839
I0
s(g353
I0
tp840
I0
s(g196
I0
tp841
F0.0
s(g206
I0
tp842
F0.0
s(g407
I0
tp843
F0.0
s(g208
I0
tp844
I0
s(g409
I0
tp845
I0
s((I26
I8
I22
I0
tp846
I0
tp847
F0.0
s(g212
I0
tp848
I0
s(g413
I1
tp849
F0.0
s(g214
I1
tp850
F0.0
s(g216
I1
tp851
I0
s(g417
I0
tp852
I0
s(g218
I1
tp853
I0
s(g423
I1
tp854
I0
s(g222
I0
tp855
I0
s(g307
I1
tp856
F0.0
s(g713
I0
tp857
F0.0
s(g767
I0
tp858
I0
s(g431
I1
tp859
I0
s(g228
I0
tp860
F0.0
s(g230
I1
tp861
F0.0
s(g435
I1
tp862
F0.0
s(g82
I0
tp863
F0.0
s(g439
I1
tp864
F0.0
s(g395
I1
tp865
I0
s(g445
I1
tp866
F0.0
s(g240
I1
tp867
I0
s(g242
I1
tp868
F0.0
s(g449
I1
tp869
I0
s(g244
I0
tp870
I0
s(g455
I0
tp871
I0
s(g297
I0
tp872
F0.0
s(g457
I0
tp873
F0.0
s((I28
I20
I22
I5
tp874
I1
tp875
I0
s(g254
I1
tp876
F0.0
s(g303
I0
tp877
F0.0
s(g256
I0
tp878
I0
s(g466
I0
tp879
I0
s(g262
I1
tp880
F0.0
s(g371
I0
tp881
I0
s(g474
I0
tp882
I0
s(g476
I1
tp883
I0
s(g266
I0
tp884
I0
s(g748
I1
tp885
F0.0
s(g269
I0
tp886
F0.0
s(g429
I0
tp887
I0
s(g271
I0
tp888
F0.0
s((I25
I36
I22
I-3
tp889
I0
tp890
I0
s(g153
I0
tp891
I0
s(g492
I0
tp892
I0
s(g484
I0
tp893
F0.0
s(g486
I0
tp894
F0.0
s(g279
I1
tp895
F0.0
s(g281
I1
tp896
F0.0
s(g285
I0
tp897
F0.0
s(g287
I1
tp898
F0.0
s(g337
I1
tp899
F0.0
s(g291
I1
tp900
F0.0
s(g506
I0
tp901
I0
s(g295
I0
tp902
F0.0
s(g299
I0
tp903
F0.0
s(g301
I1
tp904
I0
s((I24
I5
I19
I-3
tp905
I1
tp906
F0.0
s(g846
I1
tp907
I0
s(g305
I1
tp908
I0
s((I4
I19
I22
I5
tp909
I0
tp910
F0.0
s(g80
I0
tp911
F0.0
s(g311
I0
tp912
I0
s(g521
I0
tp913
F0.0
s(g224
I0
tp914
F0.0
s(g315
I0
tp915
F0.0
s(g525
I1
tp916
F0.0
s(g321
I0
tp917
I0
s(g323
I1
tp918
I0
s(g325
I1
tp919
F0.0
s(g327
I0
tp920
F0.0
s(g331
I1
tp921
I0
s(g333
I1
tp922
F0.0
s(g889
I1
tp923
F0.0
s(g540
I0
tp924
I0
s(g544
I0
tp925
I0
s(g343
I0
tp926
F0.0
s(g546
I1
tp927
I0
s(g347
I0
tp928
F0.0
s(g548
I0
tp929
I0
s(g550
I0
tp930
I0
s(g355
I0
tp931
F0.0
s(g554
I1
tp932
F0.0
s(g558
I0
tp933
I0
s(g359
I0
tp934
I0
s(g560
I0
tp935
I0
s(g562
I1
tp936
F0.0
s(g367
I1
tp937
F0.0
s(g369
I0
tp938
F0.0
s(g909
I1
tp939
I0
s(g375
I0
tp940
F0.0
s(g739
I0
tp941
F0.0
s(g572
I1
tp942
I0
s(g377
I1
tp943
F0.0
s(g379
I0
tp944
F0.0
s(g757
I0
tp945
I0
s(g579
I1
tp946
I0
s(g581
I1
tp947
I0
s(g385
I1
tp948
F0.0
s(g585
I0
tp949
F0.0
s(g681
I0
tp950
F0.0
s(g391
I1
tp951
I0
s(g598
I1
tp952
I0
s(g397
I1
tp953
F0.0
s(g670
I1
tp954
F0.0
s(g603
I0
tp955
I0
s(g606
I0
tp956
I0
s(g401
I0
tp957
F0.0
s(g609
I1
tp958
I0
s(g564
I1
tp959
I0
s(g411
I1
tp960
I0
s(g795
I1
tp961
F0.0
s(g615
I0
tp962
F0.0
s(g618
I0
tp963
I0
s(g621
I1
tp964
I0
s(g415
I1
tp965
F0.0
s(g623
I1
tp966
I0
s(g419
I0
tp967
I0
s(g470
I1
tp968
F0.0
s(g421
I1
tp969
I0
s(g232
I0
tp970
F0.0
s(g427
I1
tp971
F0.0
s(g630
I1
tp972
F0.0
s(g433
I0
tp973
F0.0
s(g437
I0
tp974
I0
s(g638
I1
tp975
F0.0
s(g441
I0
tp976
F0.0
s(g592
I0
tp977
I0
s(g643
I1
tp978
I0
s(g646
I1
tp979
I0
s(g451
I0
tp980
F0.0
s(g648
I0
tp981
F0.0
s(g453
I1
tp982
F0.0
s(g381
I1
tp983
F0.0
s(g459
I1
tp984
I0
s(g652
I0
tp985
I0
s(g655
I0
tp986
F0.0
s(g462
I0
tp987
I0
s(g661
I1
tp988
F0.0
s(g464
I1
tp989
F0.0
s(g468
I1
tp990
F0.0
s(g700
I0
tp991
I0
s(g666
I1
tp992
I0
s(g668
I0
tp993
F0.0
s(g472
I1
tp994
I0
s(g785
I1
tp995
F0.0
s(g527
I0
tp996
I0
s(g672
I1
tp997
F0.0
s(g478
I1
tp998
I0
s(g480
I1
tp999
I0
s(g633
I0
tp1000
F0.0
s(g482
I0
tp1001
I0
s(g22
I0
tp1002
F0.0
s(g488
I0
tp1003
I0
s(g490
I0
tp1004
F0.0
s(g675
I1
tp1005
F0.0
s(g494
I1
tp1006
F0.0
s(g496
I0
tp1007
F0.0
s(g180
I0
tp1008
I0
s(g498
I1
tp1009
I0
s(g500
I0
tp1010
I0
s(g502
I0
tp1011
F0.0
s(g447
I1
tp1012
I0
s(g508
I0
tp1013
F0.0
s(g905
I0
tp1014
I0
s(g510
I1
tp1015
I0
s(g512
I1
tp1016
F0.0
s(g514
I0
tp1017
F0.0
s(g556
I1
tp1018
F0.0
s(g691
I1
tp1019
I0
s(g517
I0
tp1020
F0.0
s(g519
I1
tp1021
F0.0
s(g523
I1
tp1022
F0.0
s(g750
I0
tp1023
F0.0
s(g693
I1
tp1024
I0
s(g695
I1
tp1025
I0
s(g568
I0
tp1026
I0
s(g529
I0
tp1027
F0.0
s(g698
I1
tp1028
I0
s(g532
I0
tp1029
I0
s(g534
I0
tp1030
F0.0
s(g689
I1
tp1031
F0.0
s(g707
I0
tp1032
F0.0
s(g587
I1
tp1033
I0
s(g536
I0
tp1034
I0
s(g538
I1
tp1035
I0
s(g721
I0
tp1036
I0
s(g552
I0
tp1037
F0.0
s(g727
I0
tp1038
I0
s(g731
I0
tp1039
I0
s(g733
I0
tp1040
F0.0
s(g566
I1
tp1041
I0
s(g735
I0
tp1042
F0.0
s(g600
I1
tp1043
F0.0
s(g741
I1
tp1044
F0.0
s(g570
I1
tp1045
I0
s(g574
I0
tp1046
I0
s(g577
I0
tp1047
I0
s(g705
I0
tp1048
I0
s(g583
I1
tp1049
F0.0
s(g874
I0
tp1050
F0.0
s(g744
I1
tp1051
I0
s(g746
I0
tp1052
I0
s(g590
I0
tp1053
F0.0
s(g710
I0
tp1054
I0
s(g752
I1
tp1055
I0
s(g755
I0
tp1056
I0
s(g596
I0
tp1057
F0.0
s.