ccollections
defaultdict
p0
(c__builtin__
int
p1
tp2
Rp3
((I30
I16
I20
I0
tp4
I1
tp5
I0
s((I26
I25
I19
I-4
tp6
I1
tp7
I0
s((I15
I46
I25
I-3
tp8
I1
tp9
I0
s((I23
I10
I20
I-3
tp10
I1
tp11
I0
s((I16
I43
I21
I1
tp12
I1
tp13
I0
s((I28
I26
I19
I0
tp14
I1
tp15
I0
s((I30
I2
I21
I3
tp16
I1
tp17
F0.0
s((I28
I8
I19
I-3
tp18
I0
tp19
I0
s((I29
I19
I18
I-3
tp20
I1
tp21
I0
s((I23
I9
I25
I-1
tp22
I1
tp23
I0
s((I25
I25
I22
I1
tp24
I1
tp25
I0
s((I18
I40
I24
I-3
tp26
I0
tp27
I0
s((I27
I2
I25
I4
tp28
I0
tp29
F0.0
s((I28
I34
I18
I-1
tp30
I0
tp31
F0.0
s((I29
I25
I19
I2
tp32
I0
tp33
F0.0
s((I28
I9
I17
I0
tp34
I0
tp35
I0
s((I11
I26
I24
I-3
tp36
I1
tp37
F0.0
s((I27
I11
I19
I5
tp38
I1
tp39
F0.0
s((I30
I9
I18
I-3
tp40
I1
tp41
F0.0
s((I25
I32
I17
I-3
tp42
I1
tp43
I0
s((I6
I36
I22
I5
tp44
I0
tp45
F0.0
s((I29
I17
I17
I2
tp46
I0
tp47
F0.0
s((I8
I37
I21
I5
tp48
I1
tp49
I0
s((I16
I45
I24
I-2
tp50
I1
tp51
I0
s((I30
I17
I24
I-3
tp52
I1
tp53
I0
s((I24
I19
I18
I0
tp54
I1
tp55
F0.0
s((I27
I11
I25
I5
tp56
I1
tp57
F0.0
s((I20
I13
I22
I2
tp58
I1
tp59
F0.0
s((I18
I40
I17
I-3
tp60
I0
tp61
I0
s((I29
I20
I24
I3
tp62
I1
tp63
F0.0
s((I28
I10
I21
I-3
tp64
I0
tp65
I0
s((I21
I37
I24
I-3
tp66
I1
tp67
F0.0
s((I25
I23
I19
I5
tp68
I0
tp69
I0
s((I20
I42
I18
I-4
tp70
I1
tp71
F0.0
s((I28
I32
I20
I-3
tp72
I0
tp73
I0
s((I29
I10
I18
I-3
tp74
I0
tp75
F0.0
s((I24
I25
I20
I5
tp76
I1
tp77
F0.0
s((I28
I29
I16
I-3
tp78
I0
tp79
I0
s((I32
I22
I25
I-1
tp80
I1
tp81
F0.0
s((I26
I9
I16
I3
tp82
I1
tp83
I0
s((I31
I31
I20
I-2
tp84
I0
tp85
I0
s((I15
I38
I19
I-3
tp86
I1
tp87
I0
s((I18
I41
I25
I-3
tp88
I1
tp89
F0.0
s((I31
I9
I24
I-3
tp90
I0
tp91
F0.0
s((I19
I42
I18
I-2
tp92
I1
tp93
I0
s((I30
I7
I18
I0
tp94
I0
tp95
I0
s((I23
I12
I20
I-3
tp96
I0
tp97
F0.0
s((I31
I26
I16
I-3
tp98
I0
tp99
F0.0
s((I16
I45
I18
I-2
tp100
I0
tp101
I0
s((I16
I32
I19
I-4
tp102
I0
tp103
I0
s((I30
I33
I20
I-4
tp104
I1
tp105
I0
s((I16
I45
I22
I-2
tp106
I0
tp107
F0.0
s((I28
I6
I19
I3
tp108
I0
tp109
I0
s((I29
I16
I18
I1
tp110
I0
tp111
F0.0
s((I16
I36
I19
I-1
tp112
I1
tp113
I0
s((I25
I4
I25
I-3
tp114
I0
tp115
I0
s((I22
I11
I19
I5
tp116
I1
tp117
F0.0
s((I7
I26
I22
I-4
tp118
I1
tp119
I0
s((I21
I34
I25
I2
tp120
I1
tp121
F0.0
s((I29
I18
I25
I4
tp122
I1
tp123
I0
s((I3
I35
I24
I5
tp124
I1
tp125
F0.0
s((I32
I4
I17
I0
tp126
I1
tp127
I0
s((I15
I46
I25
I-2
tp128
I1
tp129
F0.0
s((I19
I43
I20
I-2
tp130
I0
tp131
I0
s((I20
I34
I22
I-3
tp132
I1
tp133
I0
s((I21
I33
I24
I-3
tp134
I0
tp135
F0.0
s((I16
I44
I21
I0
tp136
I1
tp137
I0
s((I31
I2
I19
I-1
tp138
I1
tp139
F0.0
s((I30
I13
I19
I2
tp140
I0
tp141
I0
s((I30
I18
I20
I4
tp142
I0
tp143
F0.0
s((I17
I12
I22
I-3
tp144
I1
tp145
I0
s((I29
I18
I19
I0
tp146
I0
tp147
F0.0
s((I16
I44
I25
I0
tp148
I0
tp149
I0
s((I16
I43
I17
I1
tp150
I0
tp151
I0
s((I18
I40
I19
I-3
tp152
I0
tp153
I0
s((I30
I12
I24
I3
tp154
I0
tp155
F0.0
s((I5
I32
I24
I-3
tp156
I0
tp157
I0
s((I26
I13
I19
I5
tp158
I0
tp159
F0.0
s((I21
I36
I25
I2
tp160
I1
tp161
F0.0
s((I23
I38
I20
I-1
tp162
I1
tp163
F0.0
s((I24
I2
I20
I-3
tp164
I1
tp165
I0
s((I28
I25
I18
I-1
tp166
I1
tp167
I0
s((I21
I5
I22
I-4
tp168
I1
tp169
F0.0
s((I22
I35
I17
I0
tp170
I0
tp171
I0
s((I24
I8
I20
I1
tp172
I1
tp173
I0
s((I24
I15
I25
I5
tp174
I0
tp175
F0.0
s((I31
I23
I25
I0
tp176
I1
tp177
I0
s((I23
I30
I22
I-4
tp178
I0
tp179
F0.0
s((I28
I4
I18
I3
tp180
I1
tp181
I0
s((I30
I9
I19
I0
tp182
I0
tp183
F0.0
s((I32
I23
I16
I0
tp184
I0
tp185
I0
s((I30
I27
I20
I3
tp186
I0
tp187
I0
s((I18
I30
I19
I-4
tp188
I0
tp189
I0
s((I15
I15
I22
I1
tp190
I0
tp191
I0
s((I3
I35
I22
I5
tp192
I1
tp193
F0.0
s((I29
I12
I24
I3
tp194
I1
tp195
F0.0
s(g186
I1
tp196
F0.0
s((I32
I6
I24
I0
tp197
I0
tp198
F0.0
s((I26
I30
I17
I0
tp199
I0
tp200
F0.0
s((I27
I15
I16
I-3
tp201
I1
tp202
I0
s((I26
I36
I20
I-3
tp203
I0
tp204
I0
s((I27
I20
I24
I-2
tp205
I1
tp206
F0.0
s((I22
I32
I18
I2
tp207
I1
tp208
I0
s((I26
I27
I18
I-3
tp209
I0
tp210
F0.0
s((I25
I32
I19
I0
tp211
I0
tp212
I0
s((I21
I37
I19
I-3
tp213
I1
tp214
F0.0
s((I27
I29
I25
I-3
tp215
I1
tp216
F0.0
s((I32
I16
I25
I0
tp217
I1
tp218
F0.0
s((I30
I16
I19
I2
tp219
I0
tp220
F0.0
s((I18
I39
I24
I-2
tp221
I0
tp222
F0.0
s((I16
I4
I16
I5
tp223
I1
tp224
F0.0
s((I30
I5
I25
I0
tp225
I0
tp226
F0.0
s((I21
I28
I19
I-4
tp227
I1
tp228
F0.0
s((I28
I7
I24
I-3
tp229
I1
tp230
I0
s((I19
I16
I24
I-1
tp231
I1
tp232
I0
s((I32
I18
I24
I-3
tp233
I0
tp234
F0.0
s((I14
I41
I22
I3
tp235
I0
tp236
F0.0
s((I22
I37
I17
I-3
tp237
I1
tp238
I0
s((I24
I27
I17
I3
tp239
I1
tp240
F0.0
s((I15
I23
I24
I-3
tp241
I0
tp242
F0.0
s((I27
I4
I18
I3
tp243
I1
tp244
F0.0
s((I31
I14
I24
I0
tp245
I0
tp246
I0
s((I25
I28
I22
I-1
tp247
I1
tp248
I0
s((I31
I28
I20
I1
tp249
I1
tp250
F0.0
s((I25
I36
I20
I-3
tp251
I1
tp252
I0
s((I27
I12
I18
I1
tp253
I1
tp254
F0.0
s((I18
I40
I16
I-3
tp255
I1
tp256
F0.0
s((I22
I4
I20
I3
tp257
I0
tp258
I0
s((I21
I32
I22
I-1
tp259
I0
tp260
I0
s((I9
I23
I27
I5
tp261
I0
tp262
I0
s((I29
I4
I19
I-4
tp263
I1
tp264
I0
s((I28
I2
I24
I2
tp265
I0
tp266
I0
s((I23
I21
I18
I-3
tp267
I0
tp268
F0.0
s((I28
I20
I19
I-3
tp269
I1
tp270
I0
s((I28
I28
I20
I3
tp271
I0
tp272
F0.0
s((I16
I12
I24
I4
tp273
I1
tp274
I0
s((I19
I41
I19
I-1
tp275
I1
tp276
F0.0
s((I24
I34
I25
I-3
tp277
I0
tp278
F0.0
s((I30
I26
I25
I-3
tp279
I0
tp280
I0
s((I10
I39
I22
I5
tp281
I1
tp282
I0
s((I18
I44
I25
I-3
tp283
I1
tp284
F0.0
s((I21
I30
I24
I1
tp285
I0
tp286
I0
s((I15
I46
I19
I-2
tp287
I1
tp288
F0.0
s((I13
I10
I24
I5
tp289
I0
tp290
F0.0
s((I20
I18
I22
I-3
tp291
I0
tp292
F0.0
s((I15
I46
I20
I-3
tp293
I0
tp294
I0
s((I31
I25
I25
I-3
tp295
I1
tp296
F0.0
s(I0
I0
tp297
F0.0
s((I33
I28
I20
I-1
tp298
I1
tp299
F0.0
s((I31
I7
I21
I-3
tp300
I0
tp301
I0
s((I30
I28
I19
I-1
tp302
I0
tp303
I0
s((I14
I41
I21
I3
tp304
I1
tp305
I0
s((I15
I46
I17
I-2
tp306
I0
tp307
F0.0
s((I29
I12
I19
I-3
tp308
I0
tp309
F0.0
s((I21
I14
I20
I5
tp310
I1
tp311
F0.0
s((I26
I7
I22
I-2
tp312
I1
tp313
I0
s((I27
I32
I24
I-3
tp314
I1
tp315
I0
s((I29
I30
I19
I-3
tp316
I1
tp317
I0
s((I14
I20
I22
I-4
tp318
I0
tp319
F0.0
s((I32
I15
I24
I0
tp320
I1
tp321
F0.0
s((I16
I43
I24
I1
tp322
I1
tp323
I0
s((I18
I44
I19
I-3
tp324
I1
tp325
I0
s((I30
I4
I19
I-3
tp326
I1
tp327
F0.0
s((I28
I29
I19
I-3
tp328
I0
tp329
F0.0
s((I31
I13
I25
I2
tp330
I1
tp331
I0
s((I26
I10
I24
I5
tp332
I1
tp333
F0.0
s((I12
I18
I27
I0
tp334
I0
tp335
F0.0
s((I13
I26
I27
I5
tp336
I0
tp337
F0.0
s((I13
I40
I24
I4
tp338
I1
tp339
I0
s((I31
I9
I20
I-1
tp340
I0
tp341
F0.0
s((I26
I23
I19
I3
tp342
I0
tp343
I0
s((I25
I32
I25
I-1
tp344
I0
tp345
I0
s((I19
I14
I24
I1
tp346
I1
tp347
I0
s((I18
I44
I20
I-3
tp348
I1
tp349
F0.0
s((I24
I8
I19
I-3
tp350
I0
tp351
I0
s((I29
I27
I25
I-1
tp352
I1
tp353
F0.0
s((I30
I3
I24
I3
tp354
I0
tp355
I0
s((I21
I39
I25
I-3
tp356
I0
tp357
F0.0
s((I25
I14
I17
I5
tp358
I0
tp359
I0
s((I31
I6
I19
I-3
tp360
I1
tp361
F0.0
s((I30
I20
I16
I3
tp362
I0
tp363
I0
s((I20
I31
I27
I0
tp364
I0
tp365
F0.0
s((I27
I6
I19
I-4
tp366
I0
tp367
I0
s((I29
I19
I20
I-3
tp368
I1
tp369
F0.0
s((I11
I20
I27
I-3
tp370
I0
tp371
F0.0
s((I15
I23
I21
I-3
tp372
I0
tp373
F0.0
s((I32
I26
I20
I1
tp374
I1
tp375
F0.0
s((I24
I38
I18
I-2
tp376
I1
tp377
F0.0
s((I17
I37
I27
I3
tp378
I1
tp379
F0.0
s((I18
I10
I22
I-1
tp380
I1
tp381
I0
s((I21
I6
I16
I5
tp382
I1
tp383
I0
s((I22
I39
I25
I-1
tp384
I0
tp385
F0.0
s((I31
I20
I25
I2
tp386
I1
tp387
F0.0
s((I28
I13
I20
I3
tp388
I0
tp389
I0
s((I30
I5
I20
I3
tp390
I0
tp391
I0
s((I10
I38
I21
I5
tp392
I1
tp393
I0
s((I25
I18
I16
I5
tp394
I0
tp395
I0
s((I25
I17
I20
I3
tp396
I1
tp397
I0
s((I30
I30
I20
I0
tp398
I1
tp399
F0.0
s((I21
I41
I20
I-3
tp400
I0
tp401
F0.0
s((I28
I12
I16
I0
tp402
I0
tp403
F0.0
s((I22
I41
I18
I-4
tp404
I0
tp405
F0.0
s((I18
I7
I22
I-5
tp406
I0
tp407
I0
s((I19
I27
I18
I-3
tp408
I0
tp409
F0.0
s((I26
I33
I19
I-3
tp410
I0
tp411
I0
s((I31
I19
I17
I0
tp412
I0
tp413
F0.0
s((I26
I20
I20
I0
tp414
I0
tp415
F0.0
s((I24
I23
I24
I1
tp416
I0
tp417
I0
s((I7
I3
I24
I-3
tp418
I0
tp419
I0
s((I5
I36
I21
I5
tp420
I0
tp421
F0.0
s((I21
I11
I25
I-4
tp422
I0
tp423
F0.0
s(g170
I1
tp424
F0.0
s((I31
I24
I20
I3
tp425
I0
tp426
F0.0
s((I26
I34
I20
I-1
tp427
I0
tp428
I0
s((I12
I26
I21
I-3
tp429
I1
tp430
F0.0
s((I25
I9
I22
I-4
tp431
I0
tp432
F0.0
s((I27
I32
I18
I1
tp433
I1
tp434
I0
s((I5
I5
I24
I5
tp435
I1
tp436
F0.0
s((I15
I20
I24
I0
tp437
I0
tp438
I0
s((I5
I32
I21
I-3
tp439
I0
tp440
I0
s((I20
I13
I25
I5
tp441
I1
tp442
F0.0
s((I16
I45
I27
I-2
tp443
I1
tp444
F0.0
s((I21
I24
I18
I0
tp445
I1
tp446
F0.0
s((I33
I22
I20
I-1
tp447
I1
tp448
F0.0
s((I27
I13
I18
I4
tp449
I0
tp450
I0
s((I15
I46
I21
I-2
tp451
I1
tp452
I0
s((I16
I45
I19
I-2
tp453
I1
tp454
I0
s((I23
I36
I19
I0
tp455
I1
tp456
F0.0
s((I21
I12
I20
I5
tp457
I0
tp458
I0
s((I15
I17
I22
I-1
tp459
I1
tp460
I0
s((I6
I12
I27
I5
tp461
I0
tp462
F0.0
s(g304
I0
tp463
F0.0
s(g106
I1
tp464
I0
s((I21
I15
I21
I-3
tp465
I1
tp466
F0.0
s((I25
I29
I18
I4
tp467
I0
tp468
I0
s((I15
I43
I22
I1
tp469
I0
tp470
F0.0
s((I22
I2
I20
I-3
tp471
I1
tp472
F0.0
s((I31
I29
I20
I-3
tp473
I0
tp474
F0.0
s((I24
I7
I20
I0
tp475
I1
tp476
I0
s((I19
I43
I27
I-3
tp477
I1
tp478
I0
s((I18
I20
I22
I5
tp479
I1
tp480
F0.0
s((I15
I43
I16
I1
tp481
I0
tp482
I0
s((I15
I43
I19
I1
tp483
I0
tp484
F0.0
s((I15
I43
I24
I1
tp485
I1
tp486
F0.0
s((I27
I21
I20
I5
tp487
I0
tp488
I0
s((I13
I40
I22
I4
tp489
I1
tp490
F0.0
s((I22
I6
I20
I3
tp491
I1
tp492
I0
s((I24
I39
I20
I-3
tp493
I0
tp494
F0.0
s((I7
I37
I24
I5
tp495
I1
tp496
I0
s((I3
I35
I21
I5
tp497
I1
tp498
F0.0
s((I14
I47
I20
I-4
tp499
I1
tp500
I0
s((I29
I4
I24
I0
tp501
I1
tp502
I0
s(g285
I1
tp503
F0.0
s((I27
I15
I18
I-2
tp504
I0
tp505
F0.0
s((I32
I4
I21
I0
tp506
I0
tp507
I0
s((I10
I15
I27
I3
tp508
I1
tp509
I0
s((I15
I33
I19
I2
tp510
I0
tp511
I0
s((I23
I27
I19
I-4
tp512
I1
tp513
F0.0
s((I22
I23
I22
I4
tp514
I0
tp515
F0.0
s((I23
I35
I18
I0
tp516
I1
tp517
I0
s((I5
I32
I22
I-3
tp518
I1
tp519
I0
s((I20
I5
I20
I4
tp520
I0
tp521
I0
s((I5
I28
I22
I1
tp522
I0
tp523
I0
s((I23
I6
I25
I1
tp524
I0
tp525
I0
s((I30
I21
I17
I-3
tp526
I1
tp527
F0.0
s((I28
I29
I24
I0
tp528
I1
tp529
F0.0
s((I29
I21
I25
I3
tp530
I0
tp531
I0
s((I18
I28
I27
I3
tp532
I0
tp533
F0.0
s((I32
I3
I19
I0
tp534
I0
tp535
I0
s((I15
I38
I22
I-3
tp536
I0
tp537
I0
s((I30
I18
I19
I-3
tp538
I0
tp539
F0.0
s((I27
I5
I22
I0
tp540
I0
tp541
F0.0
s((I24
I31
I25
I-3
tp542
I0
tp543
I0
s((I24
I35
I24
I-3
tp544
I1
tp545
F0.0
s((I27
I23
I19
I-2
tp546
I0
tp547
I0
s((I32
I24
I20
I-3
tp548
I0
tp549
I0
s((I25
I15
I20
I5
tp550
I1
tp551
I0
s(g168
I0
tp552
I0
s((I22
I38
I19
I-3
tp553
I0
tp554
F0.0
s((I29
I2
I18
I-3
tp555
I1
tp556
F0.0
s((I18
I18
I24
I-3
tp557
I1
tp558
I0
s((I15
I46
I22
I-2
tp559
I0
tp560
F0.0
s((I27
I35
I20
I-4
tp561
I1
tp562
F0.0
s((I31
I15
I19
I0
tp563
I1
tp564
I0
s((I15
I46
I20
I-2
tp565
I1
tp566
F0.0
s((I8
I29
I24
I-2
tp567
I0
tp568
I0
s((I9
I24
I22
I-1
tp569
I1
tp570
F0.0
s(g8
I0
tp571
F0.0
s((I17
I44
I18
I-4
tp572
I1
tp573
F0.0
s(g12
I0
tp574
F0.0
s(g14
I0
tp575
F0.0
s((I32
I20
I20
I1
tp576
I1
tp577
I0
s(g18
I1
tp578
F0.0
s(g88
I0
tp579
I0
s((I11
I21
I22
I-3
tp580
I1
tp581
F0.0
s(g28
I1
tp582
I0
s(g30
I1
tp583
I0
s(g34
I1
tp584
F0.0
s((I18
I18
I21
I-3
tp585
I0
tp586
I0
s((I13
I40
I19
I4
tp587
I1
tp588
F0.0
s((I18
I8
I22
I2
tp589
I1
tp590
F0.0
s((I15
I42
I24
I2
tp591
I1
tp592
F0.0
s(g42
I0
tp593
F0.0
s((I22
I38
I20
I0
tp594
I0
tp595
I0
s((I6
I30
I22
I-1
tp596
I1
tp597
I0
s((I23
I3
I22
I-4
tp598
I0
tp599
F0.0
s(g48
I0
tp600
F0.0
s(g50
I0
tp601
F0.0
s((I27
I20
I19
I-3
tp602
I1
tp603
F0.0
s((I31
I19
I19
I-1
tp604
I0
tp605
F0.0
s(g54
I0
tp606
I0
s((I13
I40
I21
I4
tp607
I0
tp608
F0.0
s((I21
I16
I22
I-1
tp609
I1
tp610
I0
s(g58
I0
tp611
I0
s((I19
I40
I27
I0
tp612
I0
tp613
F0.0
s((I16
I44
I22
I0
tp614
I0
tp615
F0.0
s((I31
I6
I17
I-3
tp616
I0
tp617
I0
s((I31
I7
I20
I1
tp618
I1
tp619
F0.0
s(g64
I1
tp620
F0.0
s((I26
I36
I18
I-3
tp621
I0
tp622
F0.0
s(g68
I1
tp623
F0.0
s((I21
I41
I25
I-3
tp624
I0
tp625
F0.0
s(g74
I1
tp626
I0
s((I27
I24
I17
I-3
tp627
I1
tp628
F0.0
s((I16
I45
I16
I-2
tp629
I0
tp630
F0.0
s(g386
I0
tp631
I0
s(g589
I0
tp632
I0
s(g78
I1
tp633
F0.0
s((I24
I34
I16
I-3
tp634
I1
tp635
I0
s(g80
I0
tp636
I0
s((I17
I36
I22
I-4
tp637
I1
tp638
F0.0
s(g621
I1
tp639
I0
s(g84
I1
tp640
F0.0
s((I19
I40
I18
I0
tp641
I1
tp642
F0.0
s(g86
I0
tp643
F0.0
s(g40
I0
tp644
I0
s((I9
I8
I24
I5
tp645
I0
tp646
F0.0
s((I18
I29
I18
I5
tp647
I0
tp648
I0
s((I16
I20
I21
I0
tp649
I1
tp650
F0.0
s(g92
I0
tp651
F0.0
s(g96
I1
tp652
I0
s(g504
I1
tp653
I0
s(g98
I1
tp654
I0
s((I21
I37
I16
I-3
tp655
I1
tp656
F0.0
s(g104
I0
tp657
F0.0
s((I22
I36
I25
I0
tp658
I1
tp659
I0
s(g108
I1
tp660
F0.0
s(g110
I1
tp661
I0
s((I29
I33
I20
I-3
tp662
I1
tp663
F0.0
s(g112
I0
tp664
F0.0
s(g116
I0
tp665
I0
s((I27
I4
I20
I5
tp666
I0
tp667
F0.0
s(g118
I0
tp668
F0.0
s(g616
I1
tp669
F0.0
s((I20
I41
I20
I-4
tp670
I1
tp671
I0
s(g124
I0
tp672
I0
s((I24
I12
I21
I-3
tp673
I0
tp674
I0
s(g126
I0
tp675
F0.0
s(g205
I0
tp676
I0
s((I25
I3
I22
I2
tp677
I0
tp678
I0
s((I22
I37
I18
I-3
tp679
I0
tp680
F0.0
s((I26
I22
I18
I2
tp681
I0
tp682
I0
s(g130
I1
tp683
F0.0
s(g132
I0
tp684
F0.0
s((I31
I26
I24
I-3
tp685
I0
tp686
F0.0
s((I30
I21
I19
I-3
tp687
I0
tp688
F0.0
s(g136
I0
tp689
F0.0
s((I25
I22
I20
I-3
tp690
I0
tp691
F0.0
s(g140
I1
tp692
F0.0
s(g142
I1
tp693
I0
s(g475
I0
tp694
F0.0
s((I29
I8
I25
I-3
tp695
I1
tp696
I0
s(g146
I1
tp697
I0
s(g283
I0
tp698
I0
s(g152
I1
tp699
F0.0
s(g156
I1
tp700
F0.0
s(g162
I0
tp701
I0
s(g164
I0
tp702
F0.0
s(g166
I0
tp703
F0.0
s(g22
I0
tp704
F0.0
s(g172
I0
tp705
F0.0
s(g176
I0
tp706
F0.0
s(g180
I0
tp707
F0.0
s((I8
I29
I21
I-3
tp708
I1
tp709
F0.0
s((I25
I32
I16
I0
tp710
I1
tp711
F0.0
s((I32
I18
I25
I-3
tp712
I0
tp713
F0.0
s((I30
I12
I20
I-4
tp714
I0
tp715
F0.0
s((I24
I35
I19
I-3
tp716
I1
tp717
I0
s((I27
I12
I17
I-3
tp718
I1
tp719
I0
s(g192
I0
tp720
I0
s((I19
I34
I27
I-3
tp721
I1
tp722
I0
s((I31
I6
I18
I0
tp723
I1
tp724
F0.0
s(g158
I1
tp725
I0
s(g4
I0
tp726
F0.0
s(g6
I0
tp727
F0.0
s(g197
I1
tp728
I0
s(g201
I0
tp729
F0.0
s(g612
I1
tp730
I0
s(g209
I1
tp731
I0
s(g16
I0
tp732
I0
s(g211
I1
tp733
F0.0
s(g90
I1
tp734
I0
s(g60
I1
tp735
F0.0
s(g217
I0
tp736
I0
s(g225
I1
tp737
I0
s(g32
I1
tp738
I0
s(g36
I0
tp739
I0
s(g38
I0
tp740
I0
s(g235
I1
tp741
I0
s((I32
I23
I24
I0
tp742
I0
tp743
F0.0
s(g239
I0
tp744
I0
s(g20
I0
tp745
F0.0
s(g44
I1
tp746
I0
s(g247
I0
tp747
F0.0
s(g199
I1
tp748
I0
s(g46
I1
tp749
I0
s(g52
I0
tp750
F0.0
s(g255
I0
tp751
I0
s(g261
I1
tp752
F0.0
s(g56
I0
tp753
I0
s(g265
I1
tp754
F0.0
s(g62
I0
tp755
I0
s(g219
I1
tp756
I0
s(g70
I0
tp757
I0
s(g275
I0
tp758
I0
s(g72
I1
tp759
F0.0
s(g279
I1
tp760
F0.0
s(g277
I1
tp761
I0
s(g249
I0
tp762
I0
s(g76
I0
tp763
I0
s(g289
I1
tp764
I0
s(g518
I0
tp765
F0.0
s(g293
I1
tp766
F0.0
s(g300
I1
tp767
F0.0
s(g306
I1
tp768
I0
s(g312
I0
tp769
F0.0
s(g316
I0
tp770
F0.0
s(g94
I1
tp771
F0.0
s(g604
I1
tp772
I0
s(g487
I1
tp773
F0.0
s(g536
I1
tp774
F0.0
s(g102
I1
tp775
F0.0
s(g320
I0
tp776
I0
s(g114
I1
tp777
F0.0
s(g120
I0
tp778
I0
s(g122
I0
tp779
F0.0
s(g330
I0
tp780
F0.0
s(g332
I0
tp781
I0
s(g182
I1
tp782
I0
s(g128
I0
tp783
I0
s(g338
I0
tp784
F0.0
s(g134
I1
tp785
I0
s(g340
I1
tp786
I0
s(g344
I1
tp787
F0.0
s(g348
I0
tp788
F0.0
s(g350
I1
tp789
F0.0
s(g352
I0
tp790
I0
s(g354
I1
tp791
I0
s(g138
I0
tp792
I0
s(g356
I1
tp793
I0
s(g360
I0
tp794
I0
s(g528
I0
tp795
I0
s(g144
I0
tp796
F0.0
s(g364
I1
tp797
I0
s(g368
I0
tp798
I0
s(g148
I1
tp799
F0.0
s(g150
I1
tp800
F0.0
s(g154
I1
tp801
I0
s(g374
I0
tp802
I0
s(g160
I0
tp803
I0
s((I27
I15
I19
I3
tp804
I0
tp805
I0
s(g388
I1
tp806
F0.0
s(g390
I1
tp807
F0.0
s(g174
I1
tp808
I0
s(g178
I1
tp809
I0
s(g394
I1
tp810
F0.0
s(g396
I0
tp811
F0.0
s(g184
I1
tp812
F0.0
s(g402
I1
tp813
I0
s(g223
I0
tp814
I0
s(g406
I1
tp815
F0.0
s(g491
I0
tp816
F0.0
s(g188
I1
tp817
F0.0
s(g190
I1
tp818
F0.0
s(g194
I0
tp819
I0
s(g414
I1
tp820
I0
s(g416
I1
tp821
F0.0
s((I24
I27
I24
I-2
tp822
I1
tp823
I0
s(g203
I1
tp824
F0.0
s(g237
I0
tp825
F0.0
s(g742
I1
tp826
I0
s(g425
I1
tp827
I0
s(g207
I0
tp828
F0.0
s(g213
I0
tp829
I0
s(g427
I1
tp830
F0.0
s(g431
I1
tp831
I0
s(g215
I0
tp832
F0.0
s(g435
I0
tp833
I0
s(g26
I1
tp834
F0.0
s(g221
I1
tp835
I0
s(g227
I0
tp836
I0
s(g441
I0
tp837
I0
s(g445
I0
tp838
I0
s(g229
I0
tp839
F0.0
s(g447
I0
tp840
I0
s(g449
I1
tp841
F0.0
s(g233
I1
tp842
I0
s(g298
I0
tp843
I0
s(g457
I1
tp844
F0.0
s(g241
I1
tp845
I0
s(g461
I1
tp846
I0
s(g243
I0
tp847
I0
s(g245
I1
tp848
F0.0
s((I18
I36
I24
I1
tp849
I1
tp850
F0.0
s(g251
I0
tp851
F0.0
s(g467
I1
tp852
F0.0
s(g257
I1
tp853
F0.0
s(g259
I1
tp854
F0.0
s(g471
I0
tp855
I0
s(g263
I0
tp856
F0.0
s(g479
I0
tp857
I0
s(g483
I1
tp858
F0.0
s(g267
I1
tp859
I0
s(g429
I0
tp860
I0
s(g485
I0
tp861
I0
s(g269
I0
tp862
F0.0
s(g271
I1
tp863
I0
s(g273
I0
tp864
F0.0
s(g489
I0
tp865
I0
s(g231
I0
tp866
F0.0
s(g493
I1
tp867
I0
s(g281
I0
tp868
F0.0
s(g24
I0
tp869
F0.0
s(g287
I0
tp870
I0
s(g499
I0
tp871
F0.0
s(g291
I1
tp872
I0
s(g295
I0
tp873
I0
s(g649
I0
tp874
I0
s(g302
I1
tp875
F0.0
s(g508
I0
tp876
F0.0
s(g308
I1
tp877
I0
s(g310
I0
tp878
I0
s(g512
I0
tp879
I0
s(g314
I0
tp880
F0.0
s(g366
I1
tp881
F0.0
s(g372
I1
tp882
I0
s(g522
I1
tp883
F0.0
s(g322
I0
tp884
F0.0
s(g324
I0
tp885
F0.0
s(g526
I0
tp886
I0
s(g530
I1
tp887
F0.0
s(g532
I1
tp888
I0
s(g534
I1
tp889
F0.0
s(g326
I0
tp890
I0
s(g538
I1
tp891
I0
s(g384
I1
tp892
I0
s(g328
I1
tp893
I0
s(g540
I1
tp894
I0
s(g550
I0
tp895
F0.0
s(g334
I1
tp896
I0
s(g336
I1
tp897
I0
s(g553
I1
tp898
I0
s((I25
I36
I20
I-1
tp899
I1
tp900
F0.0
s(g342
I1
tp901
F0.0
s(g557
I0
tp902
F0.0
s(g346
I0
tp903
F0.0
s(g673
I1
tp904
F0.0
s(g563
I0
tp905
F0.0
s(g358
I1
tp906
F0.0
s(g362
I1
tp907
F0.0
s(g565
I0
tp908
I0
s(g370
I1
tp909
I0
s(g82
I0
tp910
F0.0
s(g569
I0
tp911
I0
s(g376
I0
tp912
I0
s(g572
I0
tp913
I0
s(g378
I0
tp914
I0
s(g380
I0
tp915
F0.0
s(g382
I0
tp916
F0.0
s(g576
I0
tp917
F0.0
s(g66
I0
tp918
I0
s(g587
I0
tp919
I0
s(g392
I0
tp920
F0.0
s(g398
I0
tp921
I0
s(g400
I1
tp922
F0.0
s(g404
I1
tp923
I0
s(g580
I0
tp924
I0
s(g585
I1
tp925
F0.0
s(g408
I1
tp926
I0
s(g410
I1
tp927
F0.0
s(g412
I1
tp928
I0
s(g594
I1
tp929
F0.0
s(g598
I1
tp930
I0
s(g420
I1
tp931
I0
s(g422
I1
tp932
I0
s(g602
I0
tp933
I0
s(g718
I0
tp934
F0.0
s(g607
I1
tp935
I0
s(g609
I0
tp936
F0.0
s(g899
I0
tp937
I0
s(g614
I1
tp938
I0
s(g433
I0
tp939
F0.0
s(g618
I0
tp940
I0
s(g437
I1
tp941
F0.0
s(g439
I1
tp942
F0.0
s(g624
I1
tp943
I0
s(g627
I0
tp944
I0
s(g495
I0
tp945
F0.0
s(g804
I1
tp946
F0.0
s(g634
I0
tp947
F0.0
s(g451
I0
tp948
F0.0
s(g637
I0
tp949
I0
s(g501
I0
tp950
F0.0
s((I23
I11
I22
I-3
tp951
I0
tp952
I0
s(g641
I0
tp953
I0
s(g453
I0
tp954
F0.0
s(g455
I0
tp955
I0
s(g459
I0
tp956
F0.0
s(g645
I1
tp957
I0
s(g822
I0
tp958
F0.0
s(g559
I1
tp959
I0
s(g647
I1
tp960
F0.0
s(g849
I0
tp961
I0
s(g100
I1
tp962
F0.0
s(g465
I0
tp963
I0
s(g469
I1
tp964
I0
s(g655
I0
tp965
I0
s(g658
I0
tp966
F0.0
s(g473
I1
tp967
I0
s(g662
I0
tp968
I0
s(g477
I0
tp969
F0.0
s(g666
I1
tp970
I0
s(g481
I1
tp971
F0.0
s(g670
I0
tp972
F0.0
s(g318
I1
tp973
I0
s(g951
I1
tp974
F0.0
s(g677
I1
tp975
F0.0
s(g679
I1
tp976
I0
s(g629
I1
tp977
I0
s(g253
I0
tp978
I0
s(g681
I1
tp979
F0.0
s(g497
I0
tp980
I0
s(g685
I1
tp981
I0
s(g506
I1
tp982
F0.0
s(g690
I1
tp983
I0
s(g510
I1
tp984
F0.0
s(g514
I1
tp985
I0
s(g695
I0
tp986
F0.0
s(g516
I0
tp987
F0.0
s(g418
I1
tp988
F0.0
s(g520
I1
tp989
F0.0
s(g443
I0
tp990
I0
s(g524
I1
tp991
F0.0
s(g542
I1
tp992
F0.0
s(g544
I0
tp993
I0
s(g546
I1
tp994
F0.0
s(g708
I0
tp995
I0
s(g548
I1
tp996
F0.0
s(g710
I0
tp997
I0
s(g10
I0
tp998
F0.0
s(g712
I1
tp999
I0
s(g555
I0
tp1000
I0
s(g714
I1
tp1001
I0
s(g596
I0
tp1002
F0.0
s(g687
I1
tp1003
I0
s(g561
I0
tp1004
I0
s(g716
I0
tp1005
F0.0
s(g721
I0
tp1006
F0.0
s(g591
I0
tp1007
I0
s(g567
I1
tp1008
F0.0
s(g723
I0
tp1009
I0
s.