ccollections
defaultdict
p0
(c__builtin__
int
p1
tp2
Rp3
((I22
I36
I19
I-1
tp4
I0
tp5
F0.0
s((I26
I27
I24
I0
tp6
I0
tp7
F0.0
s((I20
I11
I19
I5
tp8
I1
tp9
I0
s((I24
I13
I24
I-3
tp10
I1
tp11
I0
s((I29
I30
I17
I0
tp12
I1
tp13
I0
s((I22
I15
I24
I1
tp14
I0
tp15
I0
s((I21
I41
I17
I-3
tp16
I0
tp17
I0
s((I19
I40
I21
I0
tp18
I0
tp19
F0.0
s((I16
I45
I24
I-2
tp20
I1
tp21
I0
s((I17
I14
I17
I-3
tp22
I1
tp23
I0
s((I18
I43
I22
I-4
tp24
I0
tp25
F0.0
s((I12
I6
I19
I5
tp26
I0
tp27
I0
s((I17
I30
I20
I-3
tp28
I0
tp29
F0.0
s((I14
I41
I20
I3
tp30
I1
tp31
F0.0
s((I26
I16
I21
I1
tp32
I0
tp33
I0
s((I13
I32
I23
I2
tp34
I1
tp35
F0.0
s((I16
I45
I22
I-1
tp36
I1
tp37
F0.0
s((I19
I41
I22
I-2
tp38
I0
tp39
I0
s((I23
I13
I16
I-3
tp40
I0
tp41
I0
s((I30
I6
I21
I-3
tp42
I1
tp43
I0
s((I14
I17
I17
I-3
tp44
I1
tp45
F0.0
s((I24
I22
I20
I-3
tp46
I0
tp47
I0
s((I30
I24
I19
I-3
tp48
I1
tp49
I0
s((I17
I36
I20
I0
tp50
I0
tp51
F0.0
s((I28
I8
I23
I-4
tp52
I1
tp53
I0
s((I28
I13
I21
I-3
tp54
I0
tp55
F0.0
s((I27
I10
I16
I-3
tp56
I0
tp57
F0.0
s((I22
I22
I21
I-3
tp58
I1
tp59
F0.0
s((I25
I35
I16
I-3
tp60
I0
tp61
F0.0
s((I15
I46
I23
I-3
tp62
I0
tp63
F0.0
s((I22
I38
I19
I-2
tp64
I1
tp65
I0
s((I30
I4
I23
I0
tp66
I0
tp67
F0.0
s((I22
I18
I24
I-2
tp68
I1
tp69
I0
s((I15
I8
I19
I5
tp70
I0
tp71
F0.0
s((I23
I38
I22
I-2
tp72
I0
tp73
I0
s((I22
I14
I23
I-4
tp74
I1
tp75
F0.0
s((I22
I2
I24
I-3
tp76
I1
tp77
I0
s((I25
I19
I21
I-3
tp78
I1
tp79
I0
s((I16
I45
I23
I-1
tp80
I0
tp81
F0.0
s((I14
I4
I19
I-3
tp82
I1
tp83
I0
s((I19
I26
I23
I-3
tp84
I0
tp85
F0.0
s((I21
I24
I20
I-3
tp86
I0
tp87
I0
s((I19
I30
I21
I1
tp88
I0
tp89
F0.0
s((I17
I11
I24
I-1
tp90
I0
tp91
I0
s((I26
I2
I20
I-3
tp92
I0
tp93
I0
s((I15
I33
I20
I3
tp94
I1
tp95
F0.0
s((I16
I20
I23
I4
tp96
I1
tp97
F0.0
s((I19
I33
I21
I-2
tp98
I0
tp99
F0.0
s((I30
I5
I16
I-3
tp100
I0
tp101
F0.0
s((I19
I41
I16
I-3
tp102
I1
tp103
F0.0
s((I14
I16
I24
I2
tp104
I0
tp105
I0
s((I31
I18
I19
I-4
tp106
I0
tp107
I0
s((I25
I36
I22
I-4
tp108
I1
tp109
F0.0
s((I18
I40
I24
I-3
tp110
I0
tp111
F0.0
s((I32
I13
I19
I1
tp112
I0
tp113
F0.0
s((I14
I35
I23
I-1
tp114
I0
tp115
F0.0
s((I25
I28
I19
I-3
tp116
I0
tp117
I0
s((I18
I7
I17
I-3
tp118
I0
tp119
I0
s((I22
I30
I19
I-3
tp120
I0
tp121
I0
s((I23
I4
I17
I-4
tp122
I1
tp123
I0
s((I23
I26
I17
I5
tp124
I0
tp125
F0.0
s((I15
I12
I22
I-3
tp126
I1
tp127
I0
s((I19
I21
I24
I5
tp128
I1
tp129
F0.0
s((I14
I41
I23
I3
tp130
I1
tp131
I0
s((I30
I16
I19
I3
tp132
I0
tp133
F0.0
s((I29
I2
I23
I2
tp134
I0
tp135
I0
s((I15
I29
I23
I-3
tp136
I1
tp137
F0.0
s((I17
I36
I21
I4
tp138
I1
tp139
F0.0
s((I15
I24
I16
I5
tp140
I0
tp141
I0
s((I17
I19
I16
I0
tp142
I0
tp143
I0
s((I20
I5
I24
I5
tp144
I0
tp145
I0
s((I15
I1
I19
I-1
tp146
I1
tp147
I0
s((I25
I12
I23
I-3
tp148
I0
tp149
F0.0
s((I15
I38
I20
I-3
tp150
I1
tp151
I0
s((I27
I19
I20
I-3
tp152
I0
tp153
F0.0
s((I2
I34
I23
I5
tp154
I1
tp155
F0.0
s((I24
I7
I24
I3
tp156
I0
tp157
F0.0
s((I31
I7
I19
I-3
tp158
I1
tp159
F0.0
s((I16
I44
I16
I0
tp160
I0
tp161
I0
s((I25
I13
I19
I5
tp162
I1
tp163
I0
s((I12
I20
I17
I5
tp164
I0
tp165
I0
s((I16
I44
I19
I0
tp166
I0
tp167
I0
s((I25
I36
I17
I0
tp168
I0
tp169
I0
s((I16
I43
I24
I1
tp170
I1
tp171
F0.0
s((I18
I18
I22
I5
tp172
I0
tp173
F0.0
s((I19
I40
I19
I1
tp174
I1
tp175
F0.0
s((I18
I21
I23
I2
tp176
I1
tp177
I0
s((I19
I42
I19
I-1
tp178
I0
tp179
F0.0
s((I32
I19
I19
I0
tp180
I0
tp181
F0.0
s((I26
I30
I24
I-3
tp182
I1
tp183
I0
s((I24
I30
I16
I3
tp184
I0
tp185
F0.0
s((I15
I21
I17
I5
tp186
I1
tp187
I0
s((I31
I31
I22
I-3
tp188
I0
tp189
I0
s((I29
I8
I20
I3
tp190
I1
tp191
I0
s((I31
I2
I16
I0
tp192
I0
tp193
F0.0
s((I31
I11
I20
I0
tp194
I1
tp195
F0.0
s((I29
I11
I21
I0
tp196
I1
tp197
F0.0
s((I32
I22
I19
I-3
tp198
I1
tp199
F0.0
s((I28
I16
I20
I0
tp200
I0
tp201
I0
s((I29
I7
I23
I-3
tp202
I0
tp203
F0.0
s((I21
I38
I19
I-3
tp204
I0
tp205
F0.0
s((I28
I8
I16
I0
tp206
I1
tp207
F0.0
s((I22
I38
I16
I-3
tp208
I0
tp209
I0
s((I33
I15
I19
I-1
tp210
I1
tp211
I0
s(g206
I0
tp212
I0
s((I28
I33
I17
I-3
tp213
I0
tp214
F0.0
s((I21
I5
I17
I-4
tp215
I1
tp216
F0.0
s((I22
I39
I22
I-3
tp217
I0
tp218
F0.0
s((I10
I2
I22
I-3
tp219
I0
tp220
I0
s((I19
I38
I24
I-1
tp221
I1
tp222
F0.0
s((I20
I33
I19
I3
tp223
I0
tp224
I0
s((I18
I12
I17
I0
tp225
I1
tp226
I0
s((I17
I28
I21
I4
tp227
I1
tp228
F0.0
s(I0
I0
tp229
F0.0
s((I15
I43
I23
I1
tp230
I0
tp231
F0.0
s((I24
I5
I20
I5
tp232
I1
tp233
F0.0
s((I16
I9
I17
I3
tp234
I1
tp235
F0.0
s((I22
I36
I24
I-3
tp236
I0
tp237
F0.0
s((I16
I45
I19
I-2
tp238
I1
tp239
I0
s((I16
I45
I21
I-2
tp240
I1
tp241
F0.0
s((I27
I27
I19
I-3
tp242
I1
tp243
F0.0
s((I26
I33
I16
I0
tp244
I1
tp245
I0
s((I18
I27
I20
I0
tp246
I1
tp247
F0.0
s((I15
I46
I16
I-3
tp248
I0
tp249
F0.0
s((I21
I33
I19
I2
tp250
I0
tp251
I0
s((I16
I45
I23
I-2
tp252
I0
tp253
F0.0
s((I13
I37
I23
I-3
tp254
I1
tp255
I0
s((I11
I39
I23
I5
tp256
I1
tp257
F0.0
s((I31
I26
I22
I2
tp258
I1
tp259
F0.0
s((I17
I18
I23
I-4
tp260
I0
tp261
I0
s((I23
I21
I22
I5
tp262
I0
tp263
F0.0
s((I32
I5
I19
I0
tp264
I0
tp265
I0
s((I23
I0
I24
I0
tp266
I1
tp267
I0
s((I8
I4
I22
I5
tp268
I0
tp269
I0
s((I15
I10
I22
I0
tp270
I0
tp271
F0.0
s((I29
I10
I19
I4
tp272
I0
tp273
I0
s((I26
I10
I23
I-1
tp274
I0
tp275
I0
s((I22
I36
I19
I0
tp276
I1
tp277
I0
s((I24
I24
I24
I3
tp278
I0
tp279
F0.0
s((I32
I28
I22
I0
tp280
I1
tp281
I0
s((I19
I16
I23
I-4
tp282
I1
tp283
F0.0
s((I18
I41
I19
I-3
tp284
I1
tp285
F0.0
s((I19
I43
I21
I-3
tp286
I0
tp287
F0.0
s((I19
I24
I23
I0
tp288
I0
tp289
F0.0
s((I15
I46
I22
I-2
tp290
I0
tp291
F0.0
s((I31
I3
I19
I2
tp292
I1
tp293
F0.0
s((I15
I46
I19
I-3
tp294
I0
tp295
I0
s((I15
I46
I20
I-2
tp296
I1
tp297
I0
s((I28
I8
I21
I2
tp298
I1
tp299
F0.0
s((I31
I22
I19
I0
tp300
I1
tp301
I0
s(g8
I0
tp302
F0.0
s((I16
I44
I20
I0
tp303
I0
tp304
F0.0
s((I16
I43
I23
I1
tp305
I1
tp306
I0
s((I25
I10
I24
I0
tp307
I1
tp308
I0
s((I28
I25
I19
I-3
tp309
I1
tp310
F0.0
s((I20
I16
I16
I-3
tp311
I1
tp312
F0.0
s((I18
I44
I17
I-4
tp313
I1
tp314
F0.0
s(g14
I1
tp315
F0.0
s(g16
I1
tp316
F0.0
s((I25
I2
I17
I-2
tp317
I1
tp318
F0.0
s(g18
I1
tp319
I0
s((I24
I38
I17
I-3
tp320
I0
tp321
F0.0
s(g20
I0
tp322
F0.0
s(g22
I0
tp323
F0.0
s((I30
I20
I19
I2
tp324
I1
tp325
F0.0
s(g26
I1
tp326
F0.0
s((I31
I3
I21
I0
tp327
I1
tp328
F0.0
s(g36
I0
tp329
I0
s((I16
I45
I17
I-2
tp330
I0
tp331
I0
s((I27
I28
I17
I3
tp332
I1
tp333
I0
s(g38
I1
tp334
F0.0
s(g44
I0
tp335
I0
s((I19
I23
I17
I5
tp336
I0
tp337
F0.0
s((I12
I40
I23
I4
tp338
I1
tp339
I0
s((I19
I25
I21
I-3
tp340
I0
tp341
I0
s(g34
I0
tp342
I0
s((I7
I37
I23
I5
tp343
I0
tp344
F0.0
s((I17
I21
I16
I-3
tp345
I1
tp346
I0
s(g52
I0
tp347
F0.0
s(g56
I1
tp348
I0
s((I28
I24
I22
I5
tp349
I1
tp350
I0
s(g64
I0
tp351
F0.0
s((I13
I15
I22
I5
tp352
I0
tp353
I0
s(g42
I0
tp354
F0.0
s((I20
I27
I16
I5
tp355
I0
tp356
F0.0
s(g74
I0
tp357
I0
s(g76
I0
tp358
F0.0
s((I28
I34
I22
I-3
tp359
I1
tp360
F0.0
s((I23
I33
I24
I0
tp361
I0
tp362
I0
s((I17
I44
I19
I-4
tp363
I0
tp364
F0.0
s((I30
I14
I20
I-3
tp365
I1
tp366
F0.0
s(g86
I1
tp367
F0.0
s(g90
I1
tp368
F0.0
s(g94
I0
tp369
I0
s((I24
I30
I19
I-3
tp370
I0
tp371
I0
s(g96
I0
tp372
I0
s(g100
I1
tp373
I0
s(g102
I0
tp374
I0
s(g104
I1
tp375
F50.0
s(g4
I1
tp376
I0
s(g106
I1
tp377
F0.0
s(g6
I1
tp378
I0
s(g108
I0
tp379
I0
s(g338
I0
tp380
F0.0
s(g32
I1
tp381
F0.0
s(g10
I0
tp382
F0.0
s(g92
I1
tp383
F0.0
s(g12
I0
tp384
F0.0
s(g114
I1
tp385
I0
s(g120
I1
tp386
F0.0
s(g128
I0
tp387
I0
s(g130
I0
tp388
F0.0
s(g132
I1
tp389
I0
s(g134
I1
tp390
F0.0
s(g24
I1
tp391
I0
s(g140
I1
tp392
F0.0
s(g30
I0
tp393
I0
s(g142
I1
tp394
F0.0
s((I13
I7
I22
I3
tp395
I1
tp396
I0
s(g144
I1
tp397
F0.0
s(g146
I0
tp398
F0.0
s(g160
I1
tp399
F0.0
s(g40
I1
tp400
F0.0
s(g182
I0
tp401
F0.0
s(g300
I0
tp402
F0.0
s(g164
I1
tp403
F0.0
s(g46
I1
tp404
F0.0
s(g168
I1
tp405
F0.0
s(g80
I1
tp406
I0
s(g174
I0
tp407
I0
s(g48
I0
tp408
F0.0
s(g178
I1
tp409
I0
s(g180
I1
tp410
I0
s(g50
I1
tp411
I0
s(g54
I1
tp412
I0
s(g58
I0
tp413
I0
s(g60
I1
tp414
I0
s(g62
I1
tp415
I0
s(g66
I1
tp416
I0
s(g68
I0
tp417
F0.0
s(g70
I1
tp418
I0
s(g72
I1
tp419
F0.0
s(g78
I0
tp420
F0.0
s(g196
I0
tp421
I0
s(g305
I0
tp422
F0.0
s(g343
I1
tp423
I0
s(g200
I1
tp424
F0.0
s(g82
I0
tp425
F0.0
s(g84
I1
tp426
I0
s(g88
I1
tp427
I0
s(g202
I1
tp428
I0
s(g210
I0
tp429
F0.0
s((I16
I13
I24
I-3
tp430
I1
tp431
I0
s(g98
I1
tp432
I0
s(g215
I0
tp433
I0
s(g217
I1
tp434
I0
s(g221
I0
tp435
I0
s(g225
I0
tp436
F0.0
s(g110
I1
tp437
I0
s(g430
I0
tp438
F50.0
s(g112
I1
tp439
I0
s(g116
I1
tp440
F0.0
s(g118
I1
tp441
F0.0
s(g234
I0
tp442
I0
s(g156
I1
tp443
I0
s(g122
I0
tp444
F0.0
s(g213
I1
tp445
I0
s(g124
I1
tp446
I0
s(g126
I0
tp447
F0.0
s(g244
I0
tp448
F0.0
s(g246
I0
tp449
I0
s(g136
I0
tp450
I0
s(g248
I1
tp451
I0
s(g138
I0
tp452
I0
s(g252
I1
tp453
I0
s(g258
I0
tp454
I0
s(g260
I1
tp455
F0.0
s(g148
I1
tp456
I0
s(g150
I0
tp457
F0.0
s(g152
I1
tp458
I0
s(g264
I1
tp459
F0.0
s(g154
I0
tp460
I0
s(g158
I0
tp461
I0
s(g266
I0
tp462
I0
s(g162
I0
tp463
F0.0
s(g272
I1
tp464
F0.0
s(g352
I1
tp465
F0.0
s(g276
I0
tp466
F0.0
s(g170
I0
tp467
I0
s(g250
I1
tp468
F0.0
s(g172
I1
tp469
I0
s(g317
I0
tp470
I0
s(g284
I0
tp471
I0
s(g286
I1
tp472
I0
s(g184
I1
tp473
I0
s(g186
I0
tp474
F0.0
s(g288
I1
tp475
I0
s(g188
I1
tp476
F0.0
s(g292
I0
tp477
I0
s(g190
I0
tp478
F0.0
s(g192
I1
tp479
I0
s(g296
I0
tp480
F0.0
s(g194
I0
tp481
I0
s(g298
I0
tp482
I0
s(g166
I1
tp483
F0.0
s(g198
I0
tp484
I0
s(g204
I1
tp485
I0
s(g395
I0
tp486
F0.0
s(g230
I1
tp487
I0
s(g307
I0
tp488
F0.0
s(g208
I1
tp489
F0.0
s(g309
I0
tp490
I0
s(g311
I0
tp491
I0
s(g313
I0
tp492
I0
s(g219
I1
tp493
F0.0
s(g320
I1
tp494
I0
s(g223
I1
tp495
F0.0
s(g324
I0
tp496
I0
s(g327
I0
tp497
I0
s(g227
I0
tp498
I0
s(g232
I0
tp499
I0
s(g330
I1
tp500
F0.0
s(g236
I1
tp501
I0
s(g332
I0
tp502
F0.0
s(g238
I0
tp503
F0.0
s(g176
I0
tp504
F0.0
s(g240
I0
tp505
I0
s(g242
I0
tp506
I0
s(g336
I1
tp507
I0
s(g28
I1
tp508
I0
s(g254
I0
tp509
F0.0
s(g340
I1
tp510
F0.0
s(g256
I0
tp511
I0
s(g345
I0
tp512
F0.0
s(g262
I1
tp513
I0
s(g268
I1
tp514
F0.0
s(g349
I0
tp515
F0.0
s(g270
I1
tp516
I0
s(g355
I1
tp517
I0
s(g274
I1
tp518
F0.0
s(g359
I0
tp519
I0
s(g361
I1
tp520
F0.0
s(g363
I1
tp521
I0
s(g278
I1
tp522
I0
s(g365
I0
tp523
I0
s(g280
I0
tp524
F0.0
s(g282
I0
tp525
I0
s(g303
I1
tp526
I0
s(g370
I1
tp527
F0.0
s(g290
I1
tp528
I0
s(g294
I1
tp529
F0.0
s.