ccollections
defaultdict
p0
(c__builtin__
int
p1
tp2
Rp3
((I21
I41
I24
I-3
tp4
I1
tp5
F0.0
s((I15
I46
I25
I-3
tp6
I1
tp7
I0
s((I15
I46
I24
I-2
tp8
I1
tp9
F0.0
s((I16
I43
I21
I1
tp10
I1
tp11
I0
s((I16
I43
I15
I1
tp12
I0
tp13
I0
s((I19
I38
I25
I1
tp14
I0
tp15
F0.0
s((I18
I22
I17
I-3
tp16
I0
tp17
I0
s((I14
I6
I16
I5
tp18
I0
tp19
I0
s((I23
I20
I16
I5
tp20
I1
tp21
I0
s((I31
I29
I17
I0
tp22
I0
tp23
F0.0
s((I30
I13
I24
I-3
tp24
I0
tp25
F0.0
s((I22
I14
I24
I-3
tp26
I0
tp27
F0.0
s((I32
I11
I18
I0
tp28
I1
tp29
I0
s((I22
I5
I20
I5
tp30
I1
tp31
F0.0
s((I22
I23
I18
I0
tp32
I1
tp33
I0
s((I31
I30
I23
I-3
tp34
I0
tp35
F0.0
s((I23
I27
I17
I2
tp36
I1
tp37
F0.0
s((I30
I24
I23
I3
tp38
I0
tp39
F0.0
s((I30
I23
I24
I3
tp40
I1
tp41
I0
s((I25
I32
I15
I-3
tp42
I0
tp43
F0.0
s((I16
I45
I25
I-2
tp44
I0
tp45
I0
s((I30
I10
I20
I4
tp46
I0
tp47
F0.0
s((I29
I20
I15
I-3
tp48
I0
tp49
I0
s((I24
I6
I24
I-3
tp50
I0
tp51
F0.0
s((I8
I37
I21
I5
tp52
I1
tp53
I0
s((I16
I45
I24
I-2
tp54
I1
tp55
F0.0
s((I18
I15
I23
I-4
tp56
I1
tp57
F0.0
s((I29
I2
I25
I2
tp58
I1
tp59
I0
s((I26
I7
I23
I-3
tp60
I1
tp61
I0
s((I14
I41
I20
I3
tp62
I1
tp63
F0.0
s((I26
I6
I24
I0
tp64
I0
tp65
I0
s((I32
I3
I24
I-3
tp66
I0
tp67
F0.0
s((I31
I2
I21
I2
tp68
I1
tp69
F0.0
s((I25
I20
I17
I2
tp70
I1
tp71
F0.0
s((I30
I18
I15
I0
tp72
I1
tp73
I0
s((I20
I7
I23
I3
tp74
I1
tp75
F0.0
s((I18
I37
I18
I3
tp76
I0
tp77
I0
s((I14
I41
I27
I3
tp78
I1
tp79
F0.0
s((I22
I9
I24
I5
tp80
I0
tp81
I0
s((I22
I39
I24
I-3
tp82
I0
tp83
I0
s((I12
I36
I17
I-3
tp84
I1
tp85
I0
s((I16
I4
I16
I-3
tp86
I0
tp87
I0
s((I18
I39
I23
I-3
tp88
I0
tp89
I0
s((I22
I19
I17
I-5
tp90
I0
tp91
F0.0
s((I32
I5
I21
I-1
tp92
I0
tp93
I0
s((I31
I25
I24
I3
tp94
I0
tp95
F0.0
s((I26
I19
I23
I5
tp96
I1
tp97
I0
s((I22
I37
I16
I-3
tp98
I0
tp99
I0
s((I17
I41
I18
I-4
tp100
I1
tp101
I0
s((I8
I23
I25
I5
tp102
I1
tp103
F0.0
s((I23
I20
I23
I5
tp104
I1
tp105
I0
s((I19
I38
I24
I0
tp106
I0
tp107
F0.0
s((I20
I29
I20
I0
tp108
I1
tp109
F0.0
s((I25
I36
I25
I-3
tp110
I1
tp111
F0.0
s((I24
I28
I27
I-3
tp112
I1
tp113
I0
s((I15
I42
I23
I2
tp114
I0
tp115
I0
s((I21
I31
I27
I0
tp116
I0
tp117
I0
s((I16
I45
I20
I-2
tp118
I1
tp119
F0.0
s((I22
I35
I15
I0
tp120
I1
tp121
F0.0
s((I12
I12
I24
I1
tp122
I1
tp123
I0
s((I10
I20
I25
I-3
tp124
I1
tp125
I0
s((I26
I32
I16
I0
tp126
I0
tp127
I0
s((I28
I31
I20
I-1
tp128
I1
tp129
F0.0
s((I25
I38
I24
I-3
tp130
I0
tp131
I0
s((I31
I15
I20
I0
tp132
I0
tp133
F0.0
s((I18
I40
I15
I-3
tp134
I0
tp135
I0
s((I21
I12
I16
I0
tp136
I1
tp137
I0
s((I21
I13
I25
I-4
tp138
I0
tp139
I0
s((I25
I35
I16
I-3
tp140
I0
tp141
F0.0
s((I20
I40
I17
I-5
tp142
I0
tp143
F0.0
s((I21
I16
I23
I5
tp144
I0
tp145
I0
s((I15
I35
I25
I5
tp146
I0
tp147
I0
s((I13
I26
I25
I5
tp148
I0
tp149
F0.0
s((I7
I13
I25
I4
tp150
I1
tp151
I0
s((I18
I36
I25
I3
tp152
I1
tp153
I0
s((I10
I38
I17
I5
tp154
I0
tp155
I0
s((I20
I34
I27
I-3
tp156
I0
tp157
F0.0
s((I16
I43
I17
I1
tp158
I0
tp159
F0.0
s((I24
I38
I23
I-4
tp160
I1
tp161
F0.0
s((I23
I12
I24
I5
tp162
I0
tp163
I0
s((I18
I29
I25
I0
tp164
I1
tp165
I0
s((I10
I30
I17
I3
tp166
I1
tp167
F0.0
s((I16
I39
I17
I-4
tp168
I0
tp169
F0.0
s((I22
I38
I25
I-1
tp170
I1
tp171
F0.0
s((I25
I2
I23
I3
tp172
I0
tp173
I0
s((I19
I42
I23
I-2
tp174
I1
tp175
F0.0
s((I29
I3
I24
I-3
tp176
I1
tp177
I0
s((I32
I8
I20
I-1
tp178
I0
tp179
F0.0
s((I24
I37
I17
I-4
tp180
I1
tp181
F0.0
s((I19
I34
I25
I-3
tp182
I1
tp183
I0
s((I25
I33
I18
I-3
tp184
I0
tp185
F0.0
s((I18
I28
I25
I3
tp186
I1
tp187
I0
s((I31
I11
I24
I0
tp188
I1
tp189
F0.0
s((I20
I15
I16
I-3
tp190
I0
tp191
F0.0
s((I27
I15
I17
I-3
tp192
I0
tp193
F0.0
s((I19
I43
I24
I-3
tp194
I1
tp195
F0.0
s((I24
I26
I15
I3
tp196
I1
tp197
F0.0
s((I28
I9
I17
I4
tp198
I1
tp199
F0.0
s((I25
I25
I17
I-3
tp200
I1
tp201
I0
s((I28
I14
I24
I3
tp202
I0
tp203
F0.0
s((I30
I18
I20
I-3
tp204
I0
tp205
I0
s((I28
I36
I24
I-3
tp206
I1
tp207
I0
s((I15
I25
I17
I-3
tp208
I0
tp209
I0
s((I31
I2
I15
I-3
tp210
I0
tp211
F0.0
s((I27
I23
I24
I5
tp212
I0
tp213
I0
s((I19
I32
I20
I-3
tp214
I0
tp215
F0.0
s((I18
I27
I24
I3
tp216
I1
tp217
F0.0
s((I20
I14
I25
I-4
tp218
I0
tp219
I0
s((I32
I23
I24
I2
tp220
I0
tp221
I0
s((I31
I5
I20
I2
tp222
I1
tp223
F0.0
s((I5
I32
I21
I-3
tp224
I0
tp225
I0
s((I19
I43
I16
I-3
tp226
I0
tp227
F0.0
s((I22
I21
I25
I-3
tp228
I0
tp229
F0.0
s((I3
I11
I25
I5
tp230
I1
tp231
I0
s((I26
I5
I18
I5
tp232
I1
tp233
I0
s((I32
I12
I20
I2
tp234
I0
tp235
I0
s((I16
I38
I20
I-3
tp236
I0
tp237
F0.0
s(g124
I0
tp238
F0.0
s((I30
I26
I16
I0
tp239
I1
tp240
I0
s((I19
I42
I24
I-3
tp241
I1
tp242
F0.0
s((I33
I28
I24
I0
tp243
I1
tp244
F0.0
s((I27
I35
I17
I-3
tp245
I0
tp246
I0
s((I33
I14
I20
I-1
tp247
I0
tp248
F0.0
s((I21
I5
I25
I4
tp249
I1
tp250
I0
s((I30
I5
I25
I-1
tp251
I1
tp252
F0.0
s((I26
I5
I24
I5
tp253
I1
tp254
F0.0
s((I28
I6
I24
I-3
tp255
I1
tp256
F0.0
s((I17
I36
I27
I0
tp257
I1
tp258
F0.0
s((I28
I32
I24
I-3
tp259
I0
tp260
I0
s((I16
I44
I25
I-1
tp261
I0
tp262
I0
s((I31
I20
I27
I-3
tp263
I1
tp264
I0
s((I14
I41
I17
I3
tp265
I1
tp266
F0.0
s((I27
I21
I20
I5
tp267
I0
tp268
I0
s((I11
I7
I17
I3
tp269
I1
tp270
I0
s((I19
I41
I17
I-2
tp271
I0
tp272
I0
s(g134
I1
tp273
F0.0
s((I28
I13
I17
I-1
tp274
I0
tp275
F0.0
s((I31
I15
I17
I-3
tp276
I1
tp277
F0.0
s((I31
I29
I25
I-4
tp278
I0
tp279
I0
s((I19
I16
I25
I5
tp280
I0
tp281
I0
s((I30
I6
I17
I-3
tp282
I1
tp283
F0.0
s((I32
I29
I24
I-3
tp284
I0
tp285
F0.0
s((I28
I34
I25
I-3
tp286
I0
tp287
F0.0
s((I28
I3
I20
I4
tp288
I1
tp289
I0
s((I22
I3
I18
I5
tp290
I0
tp291
F0.0
s((I23
I35
I23
I-3
tp292
I1
tp293
F0.0
s((I30
I22
I18
I-3
tp294
I1
tp295
F0.0
s(I0
I0
tp296
F0.0
s((I25
I9
I24
I-3
tp297
I1
tp298
F0.0
s((I31
I7
I21
I-3
tp299
I0
tp300
I0
s((I27
I21
I25
I5
tp301
I1
tp302
I0
s((I23
I39
I20
I-3
tp303
I0
tp304
F0.0
s((I15
I46
I17
I-2
tp305
I0
tp306
F0.0
s((I24
I37
I20
I-1
tp307
I1
tp308
I0
s((I31
I11
I17
I1
tp309
I0
tp310
F0.0
s((I23
I12
I15
I5
tp311
I0
tp312
I0
s((I26
I10
I17
I3
tp313
I0
tp314
I0
s((I28
I15
I15
I3
tp315
I0
tp316
F0.0
s((I31
I17
I27
I0
tp317
I1
tp318
F0.0
s((I16
I43
I24
I1
tp319
I1
tp320
F0.0
s((I18
I18
I21
I-3
tp321
I1
tp322
F0.0
s((I22
I37
I24
I0
tp323
I1
tp324
F0.0
s((I24
I10
I25
I-1
tp325
I0
tp326
F0.0
s((I15
I43
I18
I1
tp327
I1
tp328
F0.0
s((I16
I44
I17
I0
tp329
I1
tp330
I0
s((I16
I45
I24
I-1
tp331
I1
tp332
F0.0
s((I9
I2
I17
I-3
tp333
I1
tp334
F0.0
s((I28
I8
I17
I-3
tp335
I1
tp336
F0.0
s((I24
I29
I17
I0
tp337
I1
tp338
I0
s((I31
I15
I24
I1
tp339
I0
tp340
F0.0
s((I27
I29
I23
I0
tp341
I1
tp342
F0.0
s(g84
I0
tp343
F0.0
s((I13
I15
I24
I-1
tp344
I1
tp345
I0
s((I20
I31
I25
I0
tp346
I1
tp347
I0
s((I24
I36
I20
I1
tp348
I1
tp349
F0.0
s((I32
I8
I27
I0
tp350
I0
tp351
F0.0
s((I16
I44
I27
I0
tp352
I1
tp353
I0
s((I27
I4
I23
I0
tp354
I0
tp355
F0.0
s(g148
I1
tp356
I0
s((I24
I18
I24
I-3
tp357
I1
tp358
F0.0
s((I25
I2
I23
I-3
tp359
I1
tp360
F0.0
s((I29
I19
I20
I-3
tp361
I1
tp362
F0.0
s((I31
I24
I20
I2
tp363
I1
tp364
F0.0
s((I26
I7
I15
I0
tp365
I0
tp366
I0
s((I22
I17
I25
I2
tp367
I0
tp368
F0.0
s((I27
I22
I23
I5
tp369
I1
tp370
I0
s((I27
I20
I20
I-2
tp371
I0
tp372
I0
s((I30
I17
I24
I0
tp373
I1
tp374
I0
s((I25
I17
I17
I-5
tp375
I1
tp376
I0
s((I19
I40
I25
I0
tp377
I0
tp378
F0.0
s(g261
I1
tp379
F0.0
s((I31
I17
I24
I-1
tp380
I1
tp381
F0.0
s((I12
I27
I17
I-3
tp382
I1
tp383
F0.0
s((I31
I31
I24
I-3
tp384
I1
tp385
I0
s((I25
I28
I18
I2
tp386
I1
tp387
F0.0
s((I25
I8
I24
I-2
tp388
I0
tp389
F0.0
s((I30
I27
I17
I3
tp390
I0
tp391
I0
s((I30
I28
I20
I-3
tp392
I0
tp393
F0.0
s((I15
I46
I27
I-2
tp394
I1
tp395
I0
s((I10
I1
I17
I-4
tp396
I0
tp397
F0.0
s(g118
I0
tp398
I0
s((I31
I19
I18
I0
tp399
I0
tp400
I0
s((I30
I21
I23
I2
tp401
I1
tp402
F0.0
s((I17
I37
I25
I3
tp403
I0
tp404
I0
s((I23
I13
I23
I-3
tp405
I1
tp406
I0
s((I12
I33
I17
I0
tp407
I0
tp408
F0.0
s((I27
I18
I17
I-3
tp409
I0
tp410
I0
s((I12
I12
I17
I-3
tp411
I1
tp412
I0
s((I16
I20
I21
I0
tp413
I0
tp414
I0
s((I29
I14
I27
I3
tp415
I0
tp416
I0
s((I22
I10
I23
I0
tp417
I1
tp418
I0
s((I15
I23
I21
I-3
tp419
I1
tp420
I0
s((I33
I27
I25
I-1
tp421
I0
tp422
F0.0
s((I31
I24
I23
I0
tp423
I0
tp424
F0.0
s((I20
I32
I24
I-3
tp425
I1
tp426
I0
s((I16
I45
I15
I-2
tp427
I1
tp428
I0
s((I29
I7
I25
I-3
tp429
I0
tp430
F0.0
s((I28
I35
I23
I-3
tp431
I1
tp432
I0
s((I23
I12
I25
I-4
tp433
I1
tp434
F0.0
s((I22
I12
I24
I0
tp435
I1
tp436
F0.0
s((I29
I20
I24
I-3
tp437
I0
tp438
F0.0
s((I28
I10
I21
I-3
tp439
I0
tp440
I0
s((I29
I33
I24
I-1
tp441
I0
tp442
I0
s((I26
I9
I25
I-3
tp443
I0
tp444
I0
s((I25
I2
I24
I1
tp445
I0
tp446
I0
s(g220
I1
tp447
F0.0
s((I13
I10
I17
I0
tp448
I1
tp449
I0
s((I28
I21
I24
I5
tp450
I0
tp451
I0
s((I21
I20
I17
I-3
tp452
I0
tp453
I0
s((I17
I37
I17
I-1
tp454
I0
tp455
I0
s((I31
I2
I17
I1
tp456
I0
tp457
F0.0
s((I23
I27
I20
I-3
tp458
I1
tp459
I0
s((I20
I24
I24
I-3
tp460
I1
tp461
I0
s((I18
I43
I24
I-3
tp462
I1
tp463
F0.0
s((I29
I19
I24
I-4
tp464
I0
tp465
I0
s((I22
I37
I15
I-3
tp466
I1
tp467
I0
s(g182
I0
tp468
F0.0
s((I21
I32
I18
I0
tp469
I1
tp470
I0
s((I20
I35
I18
I-3
tp471
I1
tp472
I0
s((I32
I26
I24
I0
tp473
I0
tp474
F0.0
s((I16
I44
I20
I0
tp475
I1
tp476
I0
s((I18
I43
I18
I-3
tp477
I1
tp478
I0
s((I15
I46
I21
I-2
tp479
I1
tp480
I0
s((I17
I1
I18
I5
tp481
I0
tp482
I0
s((I23
I32
I17
I-3
tp483
I0
tp484
F0.0
s((I23
I12
I25
I-3
tp485
I1
tp486
I0
s((I25
I4
I24
I-1
tp487
I1
tp488
I0
s((I24
I5
I18
I5
tp489
I0
tp490
I0
s((I18
I43
I25
I-3
tp491
I0
tp492
I0
s((I27
I32
I23
I-3
tp493
I0
tp494
F0.0
s(g86
I1
tp495
I0
s((I16
I45
I18
I-2
tp496
I0
tp497
F0.0
s((I32
I28
I24
I-3
tp498
I0
tp499
F0.0
s((I30
I27
I23
I-3
tp500
I1
tp501
I0
s((I25
I12
I21
I-3
tp502
I1
tp503
F0.0
s(g234
I1
tp504
F0.0
s((I16
I45
I23
I-2
tp505
I0
tp506
F0.0
s((I28
I33
I23
I0
tp507
I1
tp508
F0.0
s((I15
I18
I17
I5
tp509
I0
tp510
F0.0
s((I26
I22
I17
I-1
tp511
I0
tp512
F0.0
s((I32
I27
I23
I0
tp513
I0
tp514
F0.0
s((I19
I29
I18
I3
tp515
I0
tp516
I0
s((I30
I8
I24
I2
tp517
I0
tp518
I0
s((I26
I23
I15
I-3
tp519
I1
tp520
F0.0
s((I10
I15
I17
I5
tp521
I0
tp522
I0
s((I24
I10
I15
I-3
tp523
I1
tp524
I0
s((I3
I35
I21
I5
tp525
I1
tp526
F0.0
s((I10
I10
I24
I4
tp527
I1
tp528
I0
s((I32
I24
I25
I2
tp529
I1
tp530
F0.0
s((I33
I26
I24
I0
tp531
I0
tp532
I0
s((I20
I29
I24
I0
tp533
I1
tp534
I0
s((I20
I17
I24
I5
tp535
I0
tp536
I0
s((I17
I35
I20
I0
tp537
I1
tp538
F0.0
s(g78
I0
tp539
I0
s((I29
I31
I24
I-3
tp540
I0
tp541
I0
s(g239
I0
tp542
F0.0
s((I29
I16
I18
I3
tp543
I1
tp544
F0.0
s((I23
I10
I23
I0
tp545
I0
tp546
I0
s((I21
I26
I18
I-3
tp547
I1
tp548
I0
s((I27
I12
I17
I1
tp549
I1
tp550
I0
s((I20
I37
I23
I-3
tp551
I0
tp552
I0
s(g331
I0
tp553
I0
s((I29
I4
I15
I-3
tp554
I1
tp555
F0.0
s((I26
I3
I18
I-3
tp556
I1
tp557
F0.0
s((I23
I3
I20
I-3
tp558
I0
tp559
I0
s((I17
I35
I24
I3
tp560
I1
tp561
F0.0
s((I18
I43
I25
I-4
tp562
I1
tp563
I0
s((I26
I30
I18
I0
tp564
I1
tp565
I0
s((I22
I19
I18
I-3
tp566
I0
tp567
I0
s((I31
I11
I27
I-3
tp568
I1
tp569
I0
s((I31
I32
I17
I-3
tp570
I1
tp571
F0.0
s(g224
I1
tp572
F0.0
s((I24
I24
I20
I0
tp573
I0
tp574
I0
s((I32
I16
I20
I-3
tp575
I1
tp576
I0
s((I28
I23
I16
I3
tp577
I1
tp578
I0
s((I20
I35
I17
I-3
tp579
I0
tp580
I0
s((I29
I12
I20
I3
tp581
I0
tp582
I0
s((I19
I43
I25
I-3
tp583
I1
tp584
I0
s((I20
I15
I25
I4
tp585
I0
tp586
I0
s((I26
I29
I15
I0
tp587
I1
tp588
I0
s((I18
I43
I17
I-4
tp589
I0
tp590
F0.0
s((I30
I13
I24
I2
tp591
I0
tp592
F0.0
s((I15
I46
I20
I-2
tp593
I1
tp594
I0
s(g4
I0
tp595
I0
s(g6
I0
tp596
F0.0
s((I17
I3
I25
I5
tp597
I0
tp598
F0.0
s(g8
I0
tp599
I0
s((I16
I45
I17
I-2
tp600
I1
tp601
I0
s((I20
I21
I17
I5
tp602
I1
tp603
I0
s((I17
I32
I25
I-3
tp604
I1
tp605
I0
s((I22
I4
I23
I-3
tp606
I0
tp607
I0
s((I28
I8
I18
I2
tp608
I1
tp609
I0
s((I20
I40
I25
I-1
tp610
I1
tp611
I0
s((I31
I2
I27
I-3
tp612
I1
tp613
F0.0
s(g24
I1
tp614
I0
s((I22
I15
I21
I-3
tp615
I1
tp616
F0.0
s(g28
I0
tp617
F0.0
s((I22
I35
I18
I-2
tp618
I1
tp619
F0.0
s(g32
I0
tp620
F0.0
s((I21
I12
I23
I-3
tp621
I1
tp622
I0
s((I18
I18
I16
I5
tp623
I1
tp624
F0.0
s((I30
I8
I18
I3
tp625
I1
tp626
I0
s(g36
I0
tp627
I0
s((I19
I38
I18
I-1
tp628
I1
tp629
F0.0
s(g38
I1
tp630
I0
s((I29
I11
I18
I0
tp631
I0
tp632
I0
s((I32
I26
I20
I-1
tp633
I0
tp634
I0
s(g44
I1
tp635
F0.0
s((I29
I31
I25
I-1
tp636
I1
tp637
F0.0
s((I7
I4
I17
I5
tp638
I1
tp639
F0.0
s(g46
I1
tp640
I0
s((I22
I40
I24
I-3
tp641
I1
tp642
I0
s((I16
I27
I25
I3
tp643
I1
tp644
F0.0
s((I30
I4
I25
I0
tp645
I1
tp646
I0
s((I20
I19
I23
I5
tp647
I1
tp648
I0
s((I25
I24
I17
I5
tp649
I1
tp650
I0
s((I31
I5
I17
I-3
tp651
I0
tp652
I0
s(g54
I0
tp653
F0.0
s((I24
I18
I17
I-4
tp654
I1
tp655
F0.0
s(g12
I1
tp656
F0.0
s((I13
I40
I21
I4
tp657
I0
tp658
F0.0
s(g60
I0
tp659
F0.0
s((I31
I4
I17
I-1
tp660
I1
tp661
I0
s((I28
I13
I18
I-3
tp662
I0
tp663
F0.0
s(g64
I1
tp664
F0.0
s((I32
I3
I17
I-1
tp665
I0
tp666
F0.0
s(g66
I1
tp667
I0
s((I27
I33
I20
I-3
tp668
I1
tp669
I0
s(g274
I1
tp670
I0
s((I27
I16
I24
I-3
tp671
I1
tp672
F0.0
s(g156
I1
tp673
I0
s(g26
I1
tp674
I0
s((I21
I41
I25
I-3
tp675
I0
tp676
F0.0
s(g74
I0
tp677
I0
s(g76
I1
tp678
F0.0
s((I16
I45
I17
I-1
tp679
I0
tp680
I0
s((I11
I17
I25
I1
tp681
I1
tp682
I0
s(g608
I0
tp683
F0.0
s(g30
I0
tp684
I0
s(g82
I1
tp685
F0.0
s((I31
I10
I20
I-3
tp686
I0
tp687
I0
s((I20
I21
I18
I3
tp688
I0
tp689
I0
s((I17
I17
I23
I5
tp690
I0
tp691
I0
s((I18
I41
I24
I-3
tp692
I0
tp693
F0.0
s(g92
I1
tp694
F0.0
s(g96
I0
tp695
F0.0
s((I25
I16
I18
I-3
tp696
I0
tp697
I0
s(g98
I1
tp698
F0.0
s(g102
I0
tp699
I0
s(g108
I0
tp700
I0
s(g110
I0
tp701
I0
s(g114
I1
tp702
F0.0
s((I20
I42
I20
I-4
tp703
I0
tp704
I0
s(g88
I1
tp705
F0.0
s((I29
I5
I27
I4
tp706
I0
tp707
I0
s(g122
I0
tp708
F50.0
s((I22
I40
I23
I-3
tp709
I0
tp710
I0
s(g126
I1
tp711
F0.0
s((I21
I21
I24
I0
tp712
I0
tp713
I0
s(g128
I0
tp714
I0
s(g130
I1
tp715
F0.0
s((I31
I13
I17
I-1
tp716
I1
tp717
I0
s(g132
I1
tp718
I0
s((I19
I40
I16
I0
tp719
I0
tp720
I0
s((I26
I7
I20
I5
tp721
I0
tp722
F0.0
s(g142
I1
tp723
I0
s((I20
I40
I18
I0
tp724
I0
tp725
F0.0
s((I25
I20
I24
I5
tp726
I1
tp727
I0
s(g146
I1
tp728
F0.0
s((I25
I25
I27
I0
tp729
I1
tp730
F0.0
s(g150
I0
tp731
F0.0
s((I16
I39
I27
I-3
tp732
I1
tp733
I0
s(g154
I1
tp734
F0.0
s((I24
I8
I25
I1
tp735
I0
tp736
F0.0
s(g719
I1
tp737
F0.0
s(g160
I0
tp738
I0
s(g162
I1
tp739
F0.0
s((I18
I9
I16
I3
tp740
I0
tp741
F0.0
s(g168
I1
tp742
I0
s(g170
I0
tp743
I0
s(g176
I0
tp744
F0.0
s(g178
I1
tp745
I0
s((I12
I26
I21
I-3
tp746
I1
tp747
F0.0
s((I22
I39
I17
I-4
tp748
I0
tp749
I0
s((I8
I29
I21
I-3
tp750
I1
tp751
F0.0
s(g190
I1
tp752
I0
s((I28
I3
I24
I-3
tp753
I0
tp754
F0.0
s(g192
I1
tp755
I0
s((I19
I24
I25
I-3
tp756
I1
tp757
F0.0
s((I25
I36
I24
I-3
tp758
I0
tp759
F0.0
s((I23
I19
I25
I-1
tp760
I1
tp761
I0
s((I27
I11
I24
I5
tp762
I1
tp763
I0
s((I22
I18
I25
I5
tp764
I0
tp765
F0.0
s(g206
I0
tp766
F0.0
s((I29
I29
I16
I-3
tp767
I0
tp768
I0
s(g208
I1
tp769
F0.0
s(g10
I0
tp770
F0.0
s((I31
I13
I18
I-3
tp771
I1
tp772
I0
s(g214
I1
tp773
I0
s(g166
I0
tp774
I0
s(g174
I0
tp775
I0
s((I27
I22
I27
I-3
tp776
I1
tp777
F0.0
s(g14
I1
tp778
I0
s(g18
I1
tp779
F0.0
s(g20
I0
tp780
F0.0
s(g22
I1
tp781
I0
s(g196
I0
tp782
I0
s(g34
I1
tp783
I0
s(g243
I0
tp784
I0
s(g202
I1
tp785
I0
s(g40
I0
tp786
F0.0
s(g249
I0
tp787
F0.0
s(g42
I1
tp788
I0
s(g16
I1
tp789
F0.0
s(g48
I1
tp790
F0.0
s(g194
I0
tp791
I0
s(g50
I1
tp792
I0
s(g263
I0
tp793
F0.0
s(g265
I0
tp794
F0.0
s(g56
I0
tp795
I0
s(g104
I0
tp796
F0.0
s(g58
I0
tp797
F0.0
s(g245
I1
tp798
F0.0
s(g62
I0
tp799
I0
s(g519
I0
tp800
I0
s(g68
I0
tp801
I0
s(g80
I1
tp802
F0.0
s(g70
I0
tp803
I0
s((I16
I45
I16
I-2
tp804
I1
tp805
F0.0
s(g284
I1
tp806
I0
s(g286
I1
tp807
I0
s(g288
I0
tp808
F0.0
s((I18
I44
I20
I-4
tp809
I1
tp810
F0.0
s(g290
I1
tp811
I0
s(g551
I1
tp812
F0.0
s(g294
I0
tp813
I0
s(g297
I0
tp814
I0
s(g299
I1
tp815
F0.0
s(g305
I1
tp816
I0
s(g90
I1
tp817
I0
s(g307
I0
tp818
F0.0
s(g94
I1
tp819
I0
s(g309
I1
tp820
I0
s((I27
I25
I18
I-3
tp821
I1
tp822
F0.0
s(g100
I0
tp823
F0.0
s(g267
I1
tp824
F0.0
s(g660
I0
tp825
F0.0
s(g106
I1
tp826
I0
s(g317
I0
tp827
I0
s(g136
I0
tp828
F0.0
s(g112
I0
tp829
F0.0
s(g323
I0
tp830
I0
s(g327
I0
tp831
I0
s(g120
I0
tp832
I0
s(g329
I0
tp833
F0.0
s(g732
I0
tp834
F0.0
s(g278
I1
tp835
F0.0
s(g333
I0
tp836
I0
s(g341
I0
tp837
I0
s(g138
I1
tp838
F0.0
s(g140
I1
tp839
I0
s(g255
I0
tp840
I0
s(g348
I0
tp841
I0
s(g144
I1
tp842
F0.0
s(g352
I0
tp843
F0.0
s(g354
I1
tp844
I0
s(g502
I0
tp845
I0
s(g357
I0
tp846
I0
s(g359
I0
tp847
I0
s(g152
I0
tp848
F0.0
s(g361
I0
tp849
I0
s(g363
I0
tp850
I0
s(g158
I1
tp851
I0
s(g365
I1
tp852
F0.0
s((I26
I34
I24
I0
tp853
I1
tp854
F0.0
s(g367
I1
tp855
I0
s(g369
I0
tp856
F0.0
s(g373
I0
tp857
F0.0
s(g321
I0
tp858
I0
s(g164
I0
tp859
F0.0
s(g377
I1
tp860
I0
s(g821
I0
tp861
I0
s(g172
I1
tp862
F0.0
s(g382
I0
tp863
I0
s(g384
I0
tp864
F0.0
s(g180
I0
tp865
I0
s(g335
I0
tp866
I0
s(g184
I1
tp867
I0
s(g386
I0
tp868
I0
s(g186
I0
tp869
F0.0
s(g188
I0
tp870
I0
s((I25
I35
I24
I-3
tp871
I1
tp872
F0.0
s(g339
I1
tp873
I0
s(g396
I1
tp874
I0
s(g399
I1
tp875
F0.0
s(g403
I1
tp876
F0.0
s(g407
I1
tp877
I0
s(g198
I0
tp878
I0
s(g200
I0
tp879
F0.0
s(g204
I1
tp880
F0.0
s(g417
I0
tp881
F0.0
s(g425
I0
tp882
F0.0
s(g210
I1
tp883
I0
s(g429
I1
tp884
I0
s(g431
I0
tp885
F0.0
s(g212
I1
tp886
F0.0
s(g216
I0
tp887
I0
s(g437
I1
tp888
I0
s(g441
I1
tp889
F0.0
s(g222
I0
tp890
I0
s(g445
I1
tp891
F0.0
s(g450
I1
tp892
F0.0
s(g226
I1
tp893
I0
s(g380
I0
tp894
I0
s(g228
I1
tp895
I0
s(g230
I0
tp896
F0.0
s(g458
I0
tp897
F0.0
s(g232
I0
tp898
F0.0
s(g460
I0
tp899
F0.0
s(g464
I1
tp900
F0.0
s(g236
I1
tp901
I0
s(g466
I0
tp902
F0.0
s(g469
I0
tp903
F0.0
s(g473
I1
tp904
I0
s(g241
I0
tp905
I0
s(g247
I1
tp906
I0
s(g485
I0
tp907
F0.0
s(g251
I0
tp908
I0
s(g253
I0
tp909
I0
s(g487
I0
tp910
F0.0
s(g489
I1
tp911
F0.0
s(g257
I0
tp912
I0
s(g259
I1
tp913
F0.0
s(g776
I0
tp914
I0
s(g218
I1
tp915
F0.0
s(g500
I0
tp916
F0.0
s(g313
I1
tp917
F0.0
s(g269
I0
tp918
F0.0
s(g505
I1
tp919
F0.0
s(g271
I1
tp920
F0.0
s(g452
I1
tp921
F0.0
s(g746
I0
tp922
I0
s(g52
I0
tp923
F0.0
s(g276
I0
tp924
I0
s(g513
I1
tp925
I0
s(g280
I1
tp926
F0.0
s(g517
I1
tp927
F0.0
s(g282
I0
tp928
I0
s(g529
I0
tp929
I0
s(g292
I0
tp930
I0
s(g533
I0
tp931
F0.0
s(g535
I1
tp932
F0.0
s(g301
I0
tp933
F0.0
s(g303
I1
tp934
I0
s(g311
I1
tp935
F0.0
s(g493
I1
tp936
I0
s(g545
I1
tp937
F0.0
s(g651
I1
tp938
F0.0
s(g549
I0
tp939
F0.0
s(g554
I0
tp940
I0
s(g315
I1
tp941
I0
s(g319
I0
tp942
I0
s(g804
I0
tp943
I0
s(g560
I0
tp944
I0
s(g325
I1
tp945
I0
s(g570
I0
tp946
I0
s(g337
I0
tp947
F0.0
s(g573
I1
tp948
F0.0
s(g575
I0
tp949
F0.0
s(g726
I0
tp950
F0.0
s(g346
I0
tp951
F0.0
s(g581
I1
tp952
F0.0
s(g350
I1
tp953
I0
s(g809
I0
tp954
I0
s(g585
I1
tp955
F0.0
s(g589
I1
tp956
I0
s(g593
I0
tp957
F0.0
s(g423
I1
tp958
I0
s(g415
I1
tp959
F0.0
s(g371
I1
tp960
F0.0
s(g558
I1
tp961
F0.0
s(g597
I1
tp962
I0
s(g375
I0
tp963
F0.0
s(g439
I1
tp964
F0.0
s(g853
I0
tp965
I0
s(g602
I0
tp966
F0.0
s(g604
I0
tp967
F0.0
s(g606
I1
tp968
F0.0
s(g610
I0
tp969
F0.0
s(g612
I0
tp970
I0
s(g388
I1
tp971
I0
s(g390
I1
tp972
F0.0
s(g392
I1
tp973
I0
s(g615
I0
tp974
I0
s(g394
I0
tp975
F0.0
s(g618
I0
tp976
I0
s(g401
I0
tp977
I0
s(g72
I0
tp978
F0.0
s(g405
I0
tp979
F0.0
s(g623
I0
tp980
I0
s(g625
I0
tp981
F0.0
s(g409
I1
tp982
F0.0
s(g628
I0
tp983
I0
s(g411
I0
tp984
F0.0
s(g631
I1
tp985
F0.0
s(g413
I1
tp986
F0.0
s(g419
I0
tp987
F0.0
s(g421
I1
tp988
I0
s(g636
I0
tp989
I0
s(g427
I0
tp990
F0.0
s(g638
I0
tp991
I0
s(g641
I0
tp992
F0.0
s(g643
I0
tp993
I0
s(g645
I0
tp994
F0.0
s(g433
I0
tp995
I0
s(g647
I0
tp996
F0.0
s(g435
I0
tp997
I0
s(g649
I0
tp998
F0.0
s(g654
I0
tp999
I0
s(g600
I0
tp1000
F0.0
s(g443
I1
tp1001
F0.0
s(g657
I1
tp1002
I0
s(g448
I0
tp1003
F0.0
s(g454
I1
tp1004
F0.0
s(g456
I1
tp1005
I0
s(g662
I1
tp1006
I0
s(g665
I1
tp1007
I0
s(g668
I0
tp1008
F0.0
s(g462
I0
tp1009
I0
s(g675
I1
tp1010
I0
s(g471
I0
tp1011
F0.0
s(g679
I1
tp1012
F0.0
s(g871
I0
tp1013
I0
s(g475
I0
tp1014
F0.0
s(g686
I1
tp1015
F0.0
s(g477
I0
tp1016
F0.0
s(g688
I1
tp1017
F0.0
s(g479
I0
tp1018
F0.0
s(g481
I1
tp1019
F0.0
s(g483
I1
tp1020
I0
s(g690
I1
tp1021
F0.0
s(g692
I1
tp1022
I0
s(g491
I1
tp1023
F0.0
s(g760
I0
tp1024
F0.0
s(g496
I1
tp1025
F0.0
s(g696
I1
tp1026
F0.0
s(g116
I1
tp1027
F0.0
s(g498
I1
tp1028
I0
s(g762
I0
tp1029
F0.0
s(g703
I1
tp1030
F0.0
s(g507
I0
tp1031
I0
s(g509
I1
tp1032
I0
s(g709
I1
tp1033
F0.0
s(g511
I1
tp1034
I0
s(g671
I0
tp1035
I0
s(g515
I1
tp1036
F0.0
s(g712
I1
tp1037
F0.0
s(g681
I0
tp1038
F0.0
s(g521
I1
tp1039
F0.0
s(g716
I0
tp1040
F0.0
s(g523
I0
tp1041
F0.0
s(g525
I0
tp1042
I0
s(g527
I0
tp1043
F0.0
s(g531
I1
tp1044
F0.0
s(g721
I1
tp1045
I0
s(g724
I1
tp1046
I0
s(g537
I0
tp1047
I0
s(g729
I0
tp1048
I0
s(g540
I1
tp1049
F0.0
s(g543
I0
tp1050
I0
s(g547
I0
tp1051
F0.0
s(g735
I1
tp1052
I0
s(g556
I0
tp1053
I0
s(g767
I1
tp1054
F0.0
s(g740
I1
tp1055
I0
s(g562
I0
tp1056
F0.0
s(g564
I0
tp1057
F0.0
s(g706
I1
tp1058
F0.0
s(g568
I0
tp1059
F0.0
s(g748
I1
tp1060
F0.0
s(g750
I0
tp1061
I0
s(g753
I1
tp1062
I0
s(g577
I0
tp1063
F0.0
s(g756
I0
tp1064
I0
s(g579
I1
tp1065
F0.0
s(g758
I1
tp1066
I0
s(g566
I1
tp1067
F0.0
s(g621
I0
tp1068
F0.0
s(g583
I0
tp1069
F0.0
s(g764
I1
tp1070
I0
s(g344
I0
tp1071
F50.0
s(g633
I1
tp1072
F0.0
s(g587
I0
tp1073
F0.0
s(g591
I1
tp1074
I0
s(g771
I0
tp1075
F0.0
s.