ccollections
defaultdict
p0
(c__builtin__
int
p1
tp2
Rp3
((I21
I41
I24
I-3
tp4
I1
tp5
F0.0
s((I15
I46
I25
I-3
tp6
I1
tp7
I0
s((I15
I46
I24
I-2
tp8
I1
tp9
F0.0
s((I19
I38
I25
I1
tp10
I0
tp11
F0.0
s((I31
I29
I17
I0
tp12
I0
tp13
F0.0
s((I30
I13
I24
I-3
tp14
I0
tp15
F0.0
s((I22
I14
I24
I-3
tp16
I0
tp17
F0.0
s((I32
I11
I18
I0
tp18
I1
tp19
I0
s((I22
I23
I18
I0
tp20
I1
tp21
I0
s((I31
I30
I23
I-3
tp22
I0
tp23
F0.0
s((I23
I27
I17
I2
tp24
I1
tp25
F0.0
s((I30
I24
I23
I3
tp26
I0
tp27
F0.0
s((I30
I23
I24
I3
tp28
I1
tp29
I0
s((I16
I45
I24
I-2
tp30
I1
tp31
F0.0
s((I18
I15
I23
I-4
tp32
I1
tp33
F0.0
s((I29
I2
I25
I2
tp34
I1
tp35
I0
s((I14
I41
I20
I3
tp36
I1
tp37
F0.0
s((I26
I6
I24
I0
tp38
I0
tp39
I0
s((I32
I3
I24
I-3
tp40
I0
tp41
F0.0
s((I25
I20
I17
I2
tp42
I1
tp43
F0.0
s((I20
I7
I23
I3
tp44
I1
tp45
F0.0
s((I18
I37
I18
I3
tp46
I0
tp47
I0
s((I31
I25
I24
I3
tp48
I0
tp49
F0.0
s((I17
I41
I18
I-4
tp50
I1
tp51
I0
s((I23
I20
I23
I5
tp52
I1
tp53
I0
s((I19
I38
I24
I0
tp54
I0
tp55
F0.0
s((I20
I29
I20
I0
tp56
I1
tp57
F0.0
s((I12
I12
I24
I1
tp58
I1
tp59
I0
s((I25
I38
I24
I-3
tp60
I0
tp61
I0
s((I31
I15
I20
I0
tp62
I0
tp63
F0.0
s((I21
I13
I25
I-4
tp64
I0
tp65
I0
s((I20
I40
I17
I-5
tp66
I0
tp67
F0.0
s((I15
I35
I25
I5
tp68
I0
tp69
I0
s((I18
I36
I25
I3
tp70
I1
tp71
I0
s((I24
I38
I23
I-4
tp72
I1
tp73
F0.0
s((I23
I12
I24
I5
tp74
I0
tp75
I0
s((I18
I29
I25
I0
tp76
I1
tp77
I0
s((I16
I39
I17
I-4
tp78
I0
tp79
F0.0
s((I19
I42
I23
I-2
tp80
I1
tp81
F0.0
s((I29
I3
I24
I-3
tp82
I1
tp83
I0
s((I32
I8
I20
I-1
tp84
I0
tp85
F0.0
s((I24
I37
I17
I-4
tp86
I1
tp87
F0.0
s((I25
I33
I18
I-3
tp88
I0
tp89
F0.0
s((I31
I11
I24
I0
tp90
I1
tp91
F0.0
s((I19
I43
I24
I-3
tp92
I1
tp93
F0.0
s((I28
I9
I17
I4
tp94
I1
tp95
F0.0
s((I25
I25
I17
I-3
tp96
I1
tp97
I0
s((I28
I14
I24
I3
tp98
I0
tp99
F0.0
s((I30
I18
I20
I-3
tp100
I0
tp101
I0
s((I28
I36
I24
I-3
tp102
I1
tp103
I0
s((I27
I23
I24
I5
tp104
I0
tp105
I0
s((I19
I32
I20
I-3
tp106
I0
tp107
F0.0
s((I18
I27
I24
I3
tp108
I1
tp109
F0.0
s((I31
I5
I20
I2
tp110
I1
tp111
F0.0
s((I22
I21
I25
I-3
tp112
I0
tp113
F0.0
s((I26
I5
I18
I5
tp114
I1
tp115
I0
s((I16
I38
I20
I-3
tp116
I0
tp117
F0.0
s((I33
I28
I24
I0
tp118
I1
tp119
F0.0
s((I27
I35
I17
I-3
tp120
I0
tp121
I0
s((I30
I5
I25
I-1
tp122
I1
tp123
F0.0
s((I26
I5
I24
I5
tp124
I1
tp125
F0.0
s((I28
I6
I24
I-3
tp126
I1
tp127
F0.0
s((I28
I32
I24
I-3
tp128
I0
tp129
I0
s((I16
I44
I25
I-1
tp130
I0
tp131
I0
s((I14
I41
I17
I3
tp132
I1
tp133
F0.0
s((I11
I7
I17
I3
tp134
I1
tp135
I0
s((I19
I41
I17
I-2
tp136
I0
tp137
I0
s((I31
I15
I17
I-3
tp138
I1
tp139
F0.0
s((I30
I6
I17
I-3
tp140
I1
tp141
F0.0
s((I32
I29
I24
I-3
tp142
I0
tp143
F0.0
s((I28
I3
I20
I4
tp144
I1
tp145
I0
s((I22
I3
I18
I5
tp146
I0
tp147
F0.0
s((I30
I22
I18
I-3
tp148
I1
tp149
F0.0
s(I0
I0
tp150
F0.0
s((I25
I9
I24
I-3
tp151
I1
tp152
F0.0
s((I15
I46
I17
I-2
tp153
I0
tp154
F0.0
s((I31
I11
I17
I1
tp155
I0
tp156
F0.0
s((I16
I43
I24
I1
tp157
I1
tp158
F0.0
s((I22
I37
I24
I0
tp159
I1
tp160
F0.0
s((I15
I43
I18
I1
tp161
I1
tp162
F0.0
s((I16
I44
I17
I0
tp163
I1
tp164
I0
s((I9
I2
I17
I-3
tp165
I1
tp166
F0.0
s((I24
I29
I17
I0
tp167
I1
tp168
I0
s((I13
I15
I24
I-1
tp169
I1
tp170
I0
s((I24
I18
I24
I-3
tp171
I1
tp172
F0.0
s((I25
I2
I23
I-3
tp173
I1
tp174
F0.0
s((I22
I17
I25
I2
tp175
I0
tp176
F0.0
s((I27
I22
I23
I5
tp177
I1
tp178
I0
s((I27
I20
I20
I-2
tp179
I0
tp180
I0
s((I30
I17
I24
I0
tp181
I1
tp182
I0
s(g130
I1
tp183
F0.0
s((I31
I31
I24
I-3
tp184
I1
tp185
I0
s((I25
I28
I18
I2
tp186
I1
tp187
F0.0
s((I25
I8
I24
I-2
tp188
I0
tp189
F0.0
s((I30
I27
I17
I3
tp190
I0
tp191
I0
s((I10
I1
I17
I-4
tp192
I0
tp193
F0.0
s((I31
I19
I18
I0
tp194
I0
tp195
I0
s((I27
I18
I17
I-3
tp196
I0
tp197
I0
s((I12
I12
I17
I-3
tp198
I1
tp199
I0
s((I22
I10
I23
I0
tp200
I1
tp201
I0
s((I20
I32
I24
I-3
tp202
I1
tp203
I0
s((I29
I7
I25
I-3
tp204
I0
tp205
F0.0
s((I28
I35
I23
I-3
tp206
I1
tp207
I0
s((I23
I12
I25
I-4
tp208
I1
tp209
F0.0
s((I22
I12
I24
I0
tp210
I1
tp211
F0.0
s((I29
I20
I24
I-3
tp212
I0
tp213
F0.0
s((I29
I33
I24
I-1
tp214
I0
tp215
I0
s((I26
I9
I25
I-3
tp216
I0
tp217
I0
s((I13
I10
I17
I0
tp218
I1
tp219
I0
s((I17
I37
I17
I-1
tp220
I0
tp221
I0
s((I31
I2
I17
I1
tp222
I0
tp223
F0.0
s((I23
I27
I20
I-3
tp224
I1
tp225
I0
s((I20
I24
I24
I-3
tp226
I1
tp227
I0
s((I18
I43
I24
I-3
tp228
I1
tp229
F0.0
s((I21
I32
I18
I0
tp230
I1
tp231
I0
s((I20
I35
I18
I-3
tp232
I1
tp233
I0
s((I32
I26
I24
I0
tp234
I0
tp235
F0.0
s((I16
I44
I20
I0
tp236
I1
tp237
I0
s((I18
I43
I18
I-3
tp238
I1
tp239
I0
s((I17
I1
I18
I5
tp240
I0
tp241
I0
s((I23
I32
I17
I-3
tp242
I0
tp243
F0.0
s((I24
I5
I18
I5
tp244
I0
tp245
I0
s((I16
I45
I18
I-2
tp246
I0
tp247
F0.0
s((I16
I45
I23
I-2
tp248
I0
tp249
I0
s((I28
I33
I23
I0
tp250
I1
tp251
F0.0
s((I15
I18
I17
I5
tp252
I0
tp253
F0.0
s((I26
I22
I17
I-1
tp254
I0
tp255
F0.0
s((I32
I27
I23
I0
tp256
I0
tp257
F0.0
s((I19
I29
I18
I3
tp258
I0
tp259
I0
s((I30
I8
I24
I2
tp260
I0
tp261
I0
s((I10
I15
I17
I5
tp262
I0
tp263
I0
s((I10
I10
I24
I4
tp264
I1
tp265
I0
s((I20
I29
I24
I0
tp266
I1
tp267
I0
s((I20
I17
I24
I5
tp268
I0
tp269
I0
s((I17
I35
I20
I0
tp270
I1
tp271
F0.0
s((I29
I16
I18
I3
tp272
I1
tp273
F0.0
s((I21
I26
I18
I-3
tp274
I1
tp275
I0
s((I26
I3
I18
I-3
tp276
I1
tp277
F0.0
s((I17
I35
I24
I3
tp278
I1
tp279
F0.0
s((I18
I43
I25
I-4
tp280
I1
tp281
I0
s((I26
I30
I18
I0
tp282
I1
tp283
I0
s((I22
I19
I18
I-3
tp284
I0
tp285
I0
s((I31
I32
I17
I-3
tp286
I1
tp287
F0.0
s((I24
I24
I20
I0
tp288
I0
tp289
I0
s((I20
I35
I17
I-3
tp290
I0
tp291
I0
s((I29
I12
I20
I3
tp292
I0
tp293
I0
s((I20
I15
I25
I4
tp294
I0
tp295
I0
s((I18
I43
I17
I-4
tp296
I0
tp297
F0.0
s((I15
I46
I20
I-2
tp298
I1
tp299
I0
s(g4
I0
tp300
I0
s(g6
I0
tp301
F0.0
s(g8
I0
tp302
I0
s((I20
I21
I17
I5
tp303
I1
tp304
I0
s((I17
I32
I25
I-3
tp305
I1
tp306
I0
s((I22
I4
I23
I-3
tp307
I0
tp308
I0
s((I28
I8
I18
I2
tp309
I1
tp310
I0
s((I20
I40
I25
I-1
tp311
I1
tp312
I0
s(g14
I1
tp313
I0
s(g18
I0
tp314
F0.0
s((I22
I35
I18
I-2
tp315
I1
tp316
F0.0
s(g20
I0
tp317
F0.0
s((I21
I12
I23
I-3
tp318
I1
tp319
I0
s((I30
I8
I18
I3
tp320
I1
tp321
I0
s(g24
I0
tp322
I0
s((I19
I38
I18
I-1
tp323
I1
tp324
F0.0
s(g26
I1
tp325
I0
s((I29
I11
I18
I0
tp326
I0
tp327
I0
s((I7
I4
I17
I5
tp328
I1
tp329
F0.0
s((I22
I40
I24
I-3
tp330
I1
tp331
I0
s((I16
I27
I25
I3
tp332
I1
tp333
F0.0
s((I30
I4
I25
I0
tp334
I1
tp335
I0
s((I20
I19
I23
I5
tp336
I1
tp337
I0
s((I25
I24
I17
I5
tp338
I1
tp339
I0
s(g30
I0
tp340
F0.0
s((I31
I4
I17
I-1
tp341
I1
tp342
I0
s((I28
I13
I18
I-3
tp343
I0
tp344
F0.0
s(g38
I1
tp345
F0.0
s(g40
I1
tp346
I0
s((I27
I16
I24
I-3
tp347
I1
tp348
F0.0
s(g16
I1
tp349
I0
s(g44
I0
tp350
I0
s(g46
I1
tp351
F0.0
s((I16
I45
I17
I-1
tp352
I0
tp353
I0
s(g309
I0
tp354
F0.0
s((I31
I10
I20
I-3
tp355
I0
tp356
I0
s((I20
I21
I18
I3
tp357
I0
tp358
I0
s((I17
I17
I23
I5
tp359
I0
tp360
I0
s((I18
I41
I24
I-3
tp361
I0
tp362
F0.0
s((I25
I16
I18
I-3
tp363
I0
tp364
I0
s(g56
I0
tp365
I0
s(g58
I0
tp366
F50.0
s((I22
I40
I23
I-3
tp367
I0
tp368
I0
s((I21
I21
I24
I0
tp369
I0
tp370
I0
s(g60
I1
tp371
F0.0
s((I31
I13
I17
I-1
tp372
I1
tp373
I0
s(g62
I1
tp374
I0
s(g66
I1
tp375
I0
s((I20
I40
I18
I0
tp376
I0
tp377
F0.0
s((I25
I20
I24
I5
tp378
I1
tp379
I0
s(g68
I1
tp380
F0.0
s(g72
I0
tp381
I0
s(g74
I1
tp382
F0.0
s(g78
I1
tp383
I0
s(g82
I0
tp384
F0.0
s(g84
I1
tp385
I0
s((I22
I39
I17
I-4
tp386
I0
tp387
I0
s((I28
I3
I24
I-3
tp388
I0
tp389
F0.0
s((I19
I24
I25
I-3
tp390
I1
tp391
F0.0
s((I23
I19
I25
I-1
tp392
I1
tp393
I0
s(g102
I0
tp394
F0.0
s((I31
I13
I18
I-3
tp395
I1
tp396
I0
s(g106
I1
tp397
I0
s(g80
I0
tp398
I0
s(g10
I1
tp399
I0
s(g12
I1
tp400
I0
s(g22
I1
tp401
I0
s(g118
I0
tp402
I0
s(g98
I1
tp403
I0
s(g28
I0
tp404
F0.0
s(g92
I0
tp405
I0
s(g132
I0
tp406
I0
s(g32
I0
tp407
I0
s(g52
I0
tp408
F0.0
s(g34
I0
tp409
F0.0
s(g120
I1
tp410
F0.0
s(g36
I0
tp411
I0
s(g42
I0
tp412
I0
s(g142
I1
tp413
I0
s(g144
I0
tp414
I0
s(g146
I1
tp415
I0
s(g148
I0
tp416
I0
s(g151
I0
tp417
I0
s(g153
I1
tp418
I0
s(g48
I1
tp419
I0
s(g155
I1
tp420
I0
s((I27
I25
I18
I-3
tp421
I1
tp422
F0.0
s(g50
I0
tp423
F0.0
s(g341
I0
tp424
F0.0
s(g54
I1
tp425
I0
s(g159
I0
tp426
I0
s(g161
I0
tp427
I0
s(g163
I0
tp428
F0.0
s(g165
I0
tp429
I0
s(g64
I1
tp430
F0.0
s(g126
I0
tp431
I0
s(g171
I0
tp432
I0
s(g173
I0
tp433
I0
s(g70
I0
tp434
F0.0
s(g175
I1
tp435
I0
s(g177
I0
tp436
F0.0
s(g181
I0
tp437
F0.0
s(g76
I0
tp438
F0.0
s(g421
I0
tp439
I0
s(g184
I0
tp440
F0.0
s(g86
I0
tp441
I0
s(g88
I1
tp442
I0
s(g186
I0
tp443
I0
s(g90
I0
tp444
I0
s((I25
I35
I24
I-3
tp445
I1
tp446
F0.0
s(g192
I1
tp447
I0
s(g194
I1
tp448
F0.0
s(g94
I0
tp449
I0
s(g96
I0
tp450
F0.0
s(g100
I1
tp451
F0.0
s(g200
I0
tp452
F0.0
s(g202
I0
tp453
F0.0
s(g204
I1
tp454
I0
s(g206
I0
tp455
F0.0
s(g104
I1
tp456
F0.0
s(g108
I0
tp457
I0
s(g212
I1
tp458
I0
s(g214
I1
tp459
F0.0
s(g110
I0
tp460
I0
s(g112
I1
tp461
I0
s(g224
I0
tp462
F0.0
s(g114
I0
tp463
F0.0
s(g226
I0
tp464
F0.0
s(g116
I1
tp465
I0
s(g230
I0
tp466
F0.0
s(g234
I1
tp467
I0
s(g122
I0
tp468
I0
s(g124
I0
tp469
I0
s(g244
I1
tp470
F0.0
s(g128
I1
tp471
F0.0
s(g134
I0
tp472
F0.0
s(g248
I1
tp473
F0.0
s(g136
I1
tp474
F0.0
s(g138
I0
tp475
I0
s(g256
I1
tp476
I0
s(g260
I1
tp477
F0.0
s(g140
I0
tp478
I0
s(g266
I0
tp479
F0.0
s(g268
I1
tp480
F0.0
s(g157
I0
tp481
I0
s(g278
I0
tp482
I0
s(g286
I0
tp483
I0
s(g167
I0
tp484
F0.0
s(g288
I1
tp485
F0.0
s(g378
I0
tp486
F0.0
s(g292
I1
tp487
F0.0
s(g294
I1
tp488
F0.0
s(g296
I1
tp489
I0
s(g298
I0
tp490
F0.0
s(g179
I1
tp491
F0.0
s(g303
I0
tp492
F0.0
s(g305
I0
tp493
F0.0
s(g307
I1
tp494
F0.0
s(g311
I0
tp495
F0.0
s(g188
I1
tp496
I0
s(g190
I1
tp497
F0.0
s(g315
I0
tp498
I0
s(g320
I0
tp499
F0.0
s(g196
I1
tp500
F0.0
s(g323
I0
tp501
I0
s(g198
I0
tp502
F0.0
s(g326
I1
tp503
F0.0
s(g328
I0
tp504
I0
s(g330
I0
tp505
F0.0
s(g332
I0
tp506
I0
s(g334
I0
tp507
F0.0
s(g208
I0
tp508
I0
s(g336
I0
tp509
F0.0
s(g210
I0
tp510
I0
s(g338
I0
tp511
F0.0
s(g216
I1
tp512
F0.0
s(g218
I0
tp513
F0.0
s(g220
I1
tp514
F0.0
s(g222
I1
tp515
I0
s(g343
I1
tp516
I0
s(g228
I0
tp517
I0
s(g232
I0
tp518
F0.0
s(g352
I1
tp519
F0.0
s(g445
I0
tp520
I0
s(g236
I0
tp521
F0.0
s(g355
I1
tp522
F0.0
s(g238
I0
tp523
F0.0
s(g357
I1
tp524
F0.0
s(g240
I1
tp525
F0.0
s(g242
I1
tp526
I0
s(g359
I1
tp527
F0.0
s(g361
I1
tp528
I0
s(g392
I0
tp529
F0.0
s(g246
I1
tp530
F0.0
s(g363
I1
tp531
F0.0
s(g250
I0
tp532
I0
s(g252
I1
tp533
I0
s(g367
I1
tp534
F0.0
s(g254
I1
tp535
I0
s(g347
I0
tp536
I0
s(g258
I1
tp537
F0.0
s(g369
I1
tp538
F0.0
s(g262
I1
tp539
F0.0
s(g372
I0
tp540
F0.0
s(g264
I0
tp541
F0.0
s(g376
I1
tp542
I0
s(g270
I0
tp543
I0
s(g272
I0
tp544
I0
s(g274
I0
tp545
F0.0
s(g276
I0
tp546
I0
s(g280
I0
tp547
F0.0
s(g282
I0
tp548
F0.0
s(g386
I1
tp549
F0.0
s(g388
I1
tp550
I0
s(g390
I0
tp551
I0
s(g290
I1
tp552
F0.0
s(g284
I1
tp553
F0.0
s(g318
I0
tp554
F0.0
s(g169
I0
tp555
F50.0
s(g395
I0
tp556
F0.0
s.