ccollections
defaultdict
p0
(c__builtin__
int
p1
tp2
Rp3
((I30
I16
I23
I0
tp4
I1
tp5
I0
s((I28
I14
I20
I-3
tp6
I1
tp7
I0
s((I2
I34
I19
I5
tp8
I0
tp9
I0
s((I8
I34
I17
I-3
tp10
I0
tp11
I0
s((I22
I36
I19
I-1
tp12
I0
tp13
F0.0
s((I32
I20
I19
I-1
tp14
I0
tp15
I0
s((I26
I27
I24
I0
tp16
I0
tp17
F0.0
s((I31
I21
I26
I2
tp18
I1
tp19
I0
s((I20
I11
I19
I5
tp20
I1
tp21
I0
s((I19
I34
I20
I-3
tp22
I1
tp23
I0
s((I30
I11
I17
I3
tp24
I0
tp25
I0
s((I23
I8
I16
I-3
tp26
I0
tp27
F0.0
s((I24
I13
I24
I-3
tp28
I1
tp29
I0
s((I29
I30
I17
I0
tp30
I1
tp31
I0
s((I23
I5
I18
I5
tp32
I1
tp33
F0.0
s((I13
I31
I25
I3
tp34
I0
tp35
F0.0
s((I22
I33
I23
I2
tp36
I1
tp37
I0
s(g10
I1
tp38
F0.0
s((I24
I33
I18
I-3
tp39
I0
tp40
F0.0
s((I24
I37
I21
I-3
tp41
I0
tp42
F0.0
s((I30
I24
I16
I1
tp43
I0
tp44
I0
s((I17
I9
I17
I-3
tp45
I0
tp46
F0.0
s((I16
I45
I26
I-2
tp47
I0
tp48
F0.0
s((I27
I17
I20
I5
tp49
I0
tp50
I0
s((I22
I15
I24
I1
tp51
I0
tp52
I0
s((I15
I42
I17
I2
tp53
I0
tp54
F0.0
s((I14
I16
I17
I-3
tp55
I1
tp56
I0
s((I21
I41
I17
I-3
tp57
I0
tp58
I0
s((I28
I28
I26
I-3
tp59
I0
tp60
F0.0
s((I31
I22
I21
I-1
tp61
I0
tp62
F0.0
s((I16
I45
I25
I-2
tp63
I0
tp64
F0.0
s((I28
I29
I26
I0
tp65
I0
tp66
I0
s((I19
I4
I23
I-3
tp67
I1
tp68
I0
s((I31
I17
I19
I2
tp69
I1
tp70
F0.0
s((I6
I36
I17
I5
tp71
I1
tp72
F0.0
s((I12
I28
I17
I0
tp73
I1
tp74
F0.0
s((I30
I24
I20
I-3
tp75
I0
tp76
I0
s((I19
I40
I21
I0
tp77
I0
tp78
F0.0
s((I23
I36
I18
I0
tp79
I0
tp80
F0.0
s((I20
I31
I20
I0
tp81
I0
tp82
F0.0
s((I16
I45
I24
I-2
tp83
I1
tp84
I0
s((I17
I14
I17
I-3
tp85
I1
tp86
I0
s((I18
I43
I22
I-4
tp87
I0
tp88
F0.0
s((I25
I27
I20
I0
tp89
I1
tp90
F0.0
s((I12
I6
I19
I5
tp91
I0
tp92
I0
s((I17
I30
I20
I-3
tp93
I0
tp94
F0.0
s((I14
I41
I20
I3
tp95
I1
tp96
F0.0
s((I26
I16
I21
I1
tp97
I0
tp98
I0
s((I32
I14
I17
I0
tp99
I1
tp100
F0.0
s((I30
I5
I26
I0
tp101
I0
tp102
F0.0
s((I21
I2
I19
I5
tp103
I0
tp104
I0
s((I26
I14
I26
I5
tp105
I1
tp106
I0
s((I13
I32
I23
I2
tp107
I1
tp108
F0.0
s((I22
I11
I25
I-3
tp109
I1
tp110
I0
s((I16
I45
I22
I-1
tp111
I1
tp112
F0.0
s((I31
I21
I20
I0
tp113
I1
tp114
F0.0
s((I29
I15
I19
I4
tp115
I0
tp116
F0.0
s((I20
I41
I18
I-1
tp117
I1
tp118
F0.0
s((I18
I44
I18
I-4
tp119
I0
tp120
F0.0
s((I28
I20
I26
I4
tp121
I1
tp122
I0
s((I21
I32
I20
I0
tp123
I0
tp124
I0
s((I18
I38
I20
I2
tp125
I1
tp126
F0.0
s((I19
I41
I22
I-2
tp127
I0
tp128
I0
s((I21
I35
I26
I-3
tp129
I0
tp130
F0.0
s((I23
I13
I16
I-3
tp131
I0
tp132
I0
s((I22
I16
I21
I-3
tp133
I0
tp134
I0
s((I23
I33
I16
I-3
tp135
I0
tp136
I0
s((I29
I32
I20
I-3
tp137
I0
tp138
I0
s((I30
I6
I21
I-3
tp139
I1
tp140
I0
s((I14
I17
I17
I-3
tp141
I1
tp142
F0.0
s((I21
I40
I21
I-4
tp143
I0
tp144
I0
s((I24
I22
I20
I-3
tp145
I0
tp146
I0
s((I19
I43
I23
I-3
tp147
I0
tp148
F0.0
s((I16
I45
I18
I-2
tp149
I0
tp150
I0
s((I29
I28
I25
I1
tp151
I0
tp152
I0
s((I29
I2
I26
I2
tp153
I1
tp154
I0
s((I12
I31
I17
I-3
tp155
I0
tp156
F0.0
s((I26
I11
I26
I0
tp157
I1
tp158
F0.0
s((I28
I2
I20
I0
tp159
I0
tp160
F0.0
s((I30
I24
I19
I-3
tp161
I1
tp162
I0
s((I31
I22
I18
I0
tp163
I1
tp164
I0
s((I17
I36
I20
I0
tp165
I0
tp166
F0.0
s((I31
I25
I18
I-3
tp167
I0
tp168
F0.0
s((I24
I12
I19
I5
tp169
I0
tp170
I0
s((I31
I22
I26
I2
tp171
I0
tp172
I0
s((I28
I8
I23
I-4
tp173
I1
tp174
I0
s((I28
I13
I21
I-3
tp175
I0
tp176
F0.0
s((I27
I10
I16
I-3
tp177
I0
tp178
F0.0
s((I22
I22
I21
I-3
tp179
I1
tp180
F0.0
s((I25
I35
I16
I-3
tp181
I0
tp182
F0.0
s((I15
I46
I23
I-3
tp183
I0
tp184
F0.0
s((I22
I40
I20
I-3
tp185
I0
tp186
I0
s((I29
I3
I23
I4
tp187
I1
tp188
I0
s((I22
I38
I19
I-2
tp189
I1
tp190
I0
s((I30
I4
I23
I0
tp191
I0
tp192
F0.0
s((I22
I18
I24
I-2
tp193
I1
tp194
I0
s((I15
I8
I19
I5
tp195
I0
tp196
F0.0
s((I17
I12
I16
I-3
tp197
I0
tp198
I0
s((I23
I38
I22
I-2
tp199
I0
tp200
I0
s((I22
I14
I23
I-4
tp201
I1
tp202
F0.0
s((I22
I2
I24
I-3
tp203
I1
tp204
I0
s((I16
I43
I17
I1
tp205
I0
tp206
F0.0
s((I18
I6
I17
I0
tp207
I1
tp208
F0.0
s((I25
I19
I21
I-3
tp209
I1
tp210
I0
s((I27
I3
I26
I3
tp211
I1
tp212
F0.0
s((I27
I4
I26
I0
tp213
I1
tp214
F0.0
s((I3
I35
I17
I5
tp215
I1
tp216
I0
s((I18
I38
I18
I2
tp217
I1
tp218
F0.0
s((I25
I30
I18
I0
tp219
I0
tp220
F0.0
s((I16
I45
I23
I-1
tp221
I0
tp222
F0.0
s((I22
I38
I23
I-3
tp223
I1
tp224
I0
s((I14
I4
I19
I-3
tp225
I1
tp226
I0
s((I19
I26
I23
I-3
tp227
I0
tp228
F0.0
s((I21
I24
I20
I-3
tp229
I0
tp230
I0
s((I19
I30
I21
I1
tp231
I0
tp232
F0.0
s((I22
I37
I23
I-3
tp233
I1
tp234
F0.0
s((I17
I11
I24
I-1
tp235
I0
tp236
I0
s((I27
I12
I23
I-3
tp237
I0
tp238
I0
s((I29
I31
I25
I-3
tp239
I0
tp240
F0.0
s((I28
I18
I21
I4
tp241
I0
tp242
F0.0
s((I15
I46
I19
I-2
tp243
I0
tp244
F0.0
s((I26
I2
I20
I-3
tp245
I0
tp246
I0
s((I15
I33
I20
I3
tp247
I1
tp248
F0.0
s((I30
I17
I23
I3
tp249
I0
tp250
F0.0
s((I16
I20
I23
I4
tp251
I1
tp252
F0.0
s((I28
I3
I18
I0
tp253
I0
tp254
F0.0
s((I19
I33
I21
I-2
tp255
I0
tp256
F0.0
s((I27
I6
I18
I-3
tp257
I0
tp258
F0.0
s((I30
I5
I16
I-3
tp259
I0
tp260
F0.0
s((I30
I13
I20
I3
tp261
I0
tp262
I0
s((I19
I41
I16
I-3
tp263
I1
tp264
F0.0
s((I25
I8
I18
I5
tp265
I1
tp266
F0.0
s((I29
I29
I21
I0
tp267
I0
tp268
F0.0
s((I29
I25
I26
I0
tp269
I0
tp270
I0
s((I14
I16
I24
I2
tp271
I0
tp272
I0
s((I24
I6
I16
I-1
tp273
I1
tp274
F0.0
s((I31
I18
I19
I-4
tp275
I0
tp276
I0
s((I5
I21
I23
I5
tp277
I1
tp278
I0
s((I28
I9
I20
I2
tp279
I1
tp280
I0
s((I25
I36
I22
I-4
tp281
I1
tp282
F0.0
s((I19
I43
I16
I-3
tp283
I0
tp284
F0.0
s(g47
I1
tp285
I0
s((I8
I32
I23
I5
tp286
I1
tp287
F0.0
s((I17
I37
I23
I3
tp288
I0
tp289
F0.0
s((I19
I40
I23
I0
tp290
I1
tp291
F0.0
s((I18
I40
I24
I-3
tp292
I0
tp293
F0.0
s((I28
I7
I20
I-3
tp294
I0
tp295
F0.0
s((I32
I13
I19
I1
tp296
I0
tp297
F0.0
s((I14
I35
I23
I-1
tp298
I0
tp299
F0.0
s((I25
I28
I19
I-3
tp300
I0
tp301
I0
s((I18
I39
I17
I-3
tp302
I1
tp303
F0.0
s((I18
I7
I17
I-3
tp304
I0
tp305
I0
s((I22
I30
I19
I-3
tp306
I0
tp307
I0
s((I16
I23
I17
I-1
tp308
I0
tp309
F0.0
s((I23
I8
I25
I0
tp310
I0
tp311
F0.0
s((I17
I36
I20
I4
tp312
I1
tp313
F0.0
s((I25
I31
I26
I-2
tp314
I1
tp315
F0.0
s((I22
I40
I25
I-3
tp316
I1
tp317
I0
s((I18
I39
I26
I-2
tp318
I1
tp319
F0.0
s((I23
I4
I17
I-4
tp320
I1
tp321
I0
s((I29
I20
I18
I3
tp322
I1
tp323
F0.0
s((I29
I23
I16
I2
tp324
I0
tp325
F0.0
s((I23
I26
I17
I5
tp326
I0
tp327
F0.0
s((I27
I32
I26
I-3
tp328
I0
tp329
F0.0
s((I18
I40
I26
I-3
tp330
I1
tp331
I0
s((I15
I12
I22
I-3
tp332
I1
tp333
I0
s((I30
I4
I26
I-1
tp334
I0
tp335
F0.0
s((I31
I14
I26
I-1
tp336
I0
tp337
F0.0
s((I19
I21
I24
I5
tp338
I1
tp339
F0.0
s((I21
I36
I17
I-3
tp340
I0
tp341
I0
s((I20
I10
I16
I-3
tp342
I1
tp343
F0.0
s((I14
I41
I23
I3
tp344
I1
tp345
I0
s((I30
I16
I19
I3
tp346
I0
tp347
F0.0
s((I29
I2
I23
I2
tp348
I0
tp349
I0
s((I15
I29
I23
I-3
tp350
I1
tp351
F0.0
s((I16
I44
I26
I-1
tp352
I0
tp353
F0.0
s((I17
I36
I21
I4
tp354
I1
tp355
F0.0
s((I28
I4
I17
I-1
tp356
I0
tp357
I0
s((I15
I24
I16
I5
tp358
I0
tp359
I0
s((I27
I17
I20
I-3
tp360
I1
tp361
F0.0
s((I18
I37
I26
I-1
tp362
I0
tp363
I0
s((I25
I37
I20
I-3
tp364
I1
tp365
I0
s((I26
I22
I23
I-3
tp366
I0
tp367
I0
s((I17
I19
I16
I0
tp368
I0
tp369
I0
s((I32
I24
I26
I-1
tp370
I0
tp371
F0.0
s((I24
I34
I17
I-3
tp372
I1
tp373
F0.0
s((I20
I5
I24
I5
tp374
I0
tp375
I0
s((I15
I1
I19
I-1
tp376
I1
tp377
I0
s(g366
I1
tp378
F0.0
s((I25
I12
I23
I-3
tp379
I0
tp380
F0.0
s((I25
I29
I19
I-1
tp381
I0
tp382
I0
s((I15
I38
I20
I-3
tp383
I1
tp384
I0
s((I27
I19
I20
I-3
tp385
I0
tp386
F0.0
s((I2
I34
I23
I5
tp387
I1
tp388
F0.0
s((I21
I35
I18
I-3
tp389
I1
tp390
F0.0
s((I24
I7
I24
I3
tp391
I0
tp392
F0.0
s((I31
I7
I19
I-3
tp393
I1
tp394
F0.0
s((I16
I44
I16
I0
tp395
I0
tp396
I0
s((I22
I25
I23
I-3
tp397
I1
tp398
F0.0
s((I28
I27
I21
I2
tp399
I0
tp400
I0
s(g147
I1
tp401
I0
s((I29
I26
I23
I0
tp402
I0
tp403
I0
s((I20
I39
I19
I-1
tp404
I0
tp405
F0.0
s((I25
I13
I19
I5
tp406
I1
tp407
I0
s((I12
I20
I17
I5
tp408
I0
tp409
I0
s((I29
I12
I20
I-1
tp410
I1
tp411
I0
s((I16
I44
I19
I0
tp412
I0
tp413
I0
s((I25
I36
I17
I0
tp414
I0
tp415
I0
s((I16
I43
I24
I1
tp416
I1
tp417
F0.0
s((I26
I30
I16
I-3
tp418
I1
tp419
F0.0
s((I29
I4
I20
I0
tp420
I0
tp421
F0.0
s((I25
I8
I17
I5
tp422
I1
tp423
F0.0
s((I18
I44
I21
I-3
tp424
I0
tp425
F0.0
s((I18
I18
I22
I5
tp426
I0
tp427
F0.0
s((I31
I12
I20
I0
tp428
I0
tp429
F0.0
s((I23
I37
I25
I0
tp430
I1
tp431
F0.0
s((I24
I28
I18
I2
tp432
I1
tp433
I0
s(g223
I0
tp434
F0.0
s((I8
I37
I17
I5
tp435
I1
tp436
I0
s((I19
I40
I19
I1
tp437
I1
tp438
F0.0
s((I18
I21
I23
I2
tp439
I1
tp440
I0
s((I3
I4
I21
I5
tp441
I0
tp442
F0.0
s((I19
I42
I19
I-1
tp443
I0
tp444
F0.0
s((I32
I19
I19
I0
tp445
I0
tp446
F0.0
s((I32
I22
I26
I-3
tp447
I0
tp448
I0
s((I20
I4
I17
I-3
tp449
I0
tp450
I0
s((I26
I30
I24
I-3
tp451
I1
tp452
I0
s((I33
I22
I25
I1
tp453
I1
tp454
I0
s((I24
I30
I16
I3
tp455
I0
tp456
F0.0
s((I25
I30
I26
I-3
tp457
I1
tp458
F0.0
s((I15
I21
I17
I5
tp459
I1
tp460
I0
s((I12
I35
I23
I5
tp461
I0
tp462
F0.0
s((I26
I9
I19
I-3
tp463
I1
tp464
I0
s((I31
I31
I22
I-3
tp465
I0
tp466
I0
s((I25
I34
I25
I-3
tp467
I0
tp468
I0
s((I29
I8
I20
I3
tp469
I1
tp470
I0
s((I31
I2
I16
I0
tp471
I0
tp472
F0.0
s((I28
I28
I17
I0
tp473
I0
tp474
I0
s((I29
I25
I23
I2
tp475
I0
tp476
I0
s((I24
I31
I19
I-3
tp477
I0
tp478
F0.0
s((I31
I11
I20
I0
tp479
I1
tp480
F0.0
s((I18
I42
I19
I-3
tp481
I0
tp482
F0.0
s((I21
I23
I20
I0
tp483
I1
tp484
F0.0
s((I29
I11
I21
I0
tp485
I1
tp486
F0.0
s((I29
I8
I26
I-3
tp487
I1
tp488
I0
s((I30
I25
I21
I-3
tp489
I1
tp490
F0.0
s((I18
I36
I19
I2
tp491
I1
tp492
F0.0
s((I24
I34
I26
I-3
tp493
I0
tp494
I0
s((I32
I22
I19
I-3
tp495
I1
tp496
F0.0
s((I28
I16
I20
I0
tp497
I0
tp498
I0
s((I27
I6
I17
I-3
tp499
I1
tp500
I0
s((I25
I2
I18
I-3
tp501
I0
tp502
I0
s((I29
I7
I23
I-3
tp503
I0
tp504
F0.0
s((I15
I43
I26
I1
tp505
I0
tp506
I0
s((I30
I19
I20
I2
tp507
I1
tp508
F0.0
s((I15
I15
I16
I5
tp509
I1
tp510
F0.0
s((I27
I31
I17
I-3
tp511
I0
tp512
F0.0
s((I21
I38
I19
I-3
tp513
I0
tp514
F0.0
s((I12
I40
I19
I4
tp515
I1
tp516
I0
s((I28
I8
I16
I0
tp517
I1
tp518
F0.0
s((I31
I22
I23
I-3
tp519
I1
tp520
F0.0
s((I22
I38
I16
I-3
tp521
I0
tp522
I0
s((I33
I15
I19
I-1
tp523
I1
tp524
I0
s((I16
I45
I20
I-2
tp525
I0
tp526
I0
s(g517
I0
tp527
I0
s(g243
I1
tp528
I0
s((I30
I29
I20
I0
tp529
I0
tp530
F0.0
s((I31
I12
I18
I2
tp531
I0
tp532
I0
s((I29
I19
I23
I-3
tp533
I1
tp534
I0
s((I28
I19
I26
I4
tp535
I1
tp536
F0.0
s((I22
I33
I18
I2
tp537
I1
tp538
F0.0
s((I30
I12
I26
I2
tp539
I0
tp540
I0
s((I28
I33
I17
I-3
tp541
I0
tp542
F0.0
s((I21
I5
I17
I-4
tp543
I1
tp544
F0.0
s((I30
I19
I25
I4
tp545
I0
tp546
F0.0
s((I7
I37
I19
I5
tp547
I0
tp548
F0.0
s((I25
I20
I18
I-3
tp549
I0
tp550
I0
s(g467
I1
tp551
F0.0
s((I17
I30
I23
I5
tp552
I0
tp553
I0
s((I22
I39
I22
I-3
tp554
I0
tp555
F0.0
s((I19
I37
I26
I0
tp556
I0
tp557
I0
s((I10
I2
I22
I-3
tp558
I0
tp559
I0
s(g277
I0
tp560
F0.0
s((I19
I38
I24
I-1
tp561
I1
tp562
F0.0
s((I20
I41
I20
I-1
tp563
I0
tp564
F0.0
s((I20
I33
I19
I3
tp565
I0
tp566
I0
s((I32
I4
I20
I0
tp567
I1
tp568
I0
s((I18
I12
I17
I0
tp569
I1
tp570
I0
s((I30
I25
I16
I0
tp571
I0
tp572
F0.0
s((I15
I43
I25
I1
tp573
I0
tp574
F0.0
s((I17
I28
I21
I4
tp575
I1
tp576
F0.0
s((I13
I9
I21
I5
tp577
I0
tp578
F0.0
s(I0
I0
tp579
F0.0
s((I24
I31
I18
I-3
tp580
I0
tp581
I0
s((I15
I34
I25
I0
tp582
I1
tp583
I0
s((I15
I43
I23
I1
tp584
I0
tp585
F0.0
s((I24
I5
I20
I5
tp586
I1
tp587
F0.0
s((I14
I12
I17
I2
tp588
I1
tp589
F0.0
s((I16
I9
I17
I3
tp590
I1
tp591
F0.0
s((I29
I20
I17
I3
tp592
I0
tp593
I0
s((I20
I13
I25
I5
tp594
I1
tp595
F0.0
s((I22
I36
I24
I-3
tp596
I0
tp597
F0.0
s((I18
I43
I18
I-3
tp598
I1
tp599
I0
s((I15
I46
I21
I-2
tp600
I1
tp601
F0.0
s((I26
I32
I23
I0
tp602
I0
tp603
I0
s((I31
I4
I23
I2
tp604
I1
tp605
I0
s((I17
I40
I26
I-3
tp606
I0
tp607
F0.0
s((I16
I45
I19
I-2
tp608
I1
tp609
I0
s((I25
I16
I25
I5
tp610
I1
tp611
I0
s((I21
I35
I20
I-3
tp612
I0
tp613
F0.0
s((I25
I4
I19
I3
tp614
I0
tp615
F0.0
s((I23
I15
I21
I5
tp616
I0
tp617
F0.0
s((I15
I46
I23
I-2
tp618
I0
tp619
I0
s((I16
I45
I21
I-2
tp620
I1
tp621
F0.0
s((I27
I27
I19
I-3
tp622
I1
tp623
F0.0
s((I31
I25
I17
I-3
tp624
I0
tp625
I0
s((I19
I40
I16
I0
tp626
I0
tp627
F0.0
s((I31
I27
I26
I-3
tp628
I1
tp629
I0
s((I30
I9
I23
I-3
tp630
I0
tp631
F0.0
s((I26
I33
I16
I0
tp632
I1
tp633
I0
s((I18
I27
I20
I0
tp634
I1
tp635
F0.0
s((I23
I2
I17
I-3
tp636
I0
tp637
F0.0
s((I9
I24
I23
I3
tp638
I1
tp639
I0
s((I26
I35
I21
I0
tp640
I0
tp641
I0
s((I18
I12
I21
I5
tp642
I1
tp643
I0
s((I15
I46
I16
I-3
tp644
I0
tp645
F0.0
s((I21
I33
I19
I2
tp646
I0
tp647
I0
s((I16
I45
I23
I-2
tp648
I0
tp649
F0.0
s((I13
I37
I23
I-3
tp650
I1
tp651
I0
s((I15
I43
I19
I1
tp652
I0
tp653
F0.0
s((I26
I14
I23
I5
tp654
I1
tp655
F0.0
s((I15
I14
I17
I-1
tp656
I1
tp657
I0
s((I30
I26
I26
I-3
tp658
I1
tp659
F0.0
s((I24
I20
I20
I-3
tp660
I1
tp661
F0.0
s((I28
I24
I20
I-2
tp662
I0
tp663
F0.0
s((I21
I34
I19
I-3
tp664
I1
tp665
F0.0
s((I11
I39
I23
I5
tp666
I1
tp667
F0.0
s((I31
I26
I22
I2
tp668
I1
tp669
F0.0
s((I19
I42
I21
I-1
tp670
I0
tp671
I0
s((I17
I18
I23
I-4
tp672
I0
tp673
I0
s(g658
I0
tp674
I0
s((I22
I23
I18
I-3
tp675
I0
tp676
I0
s((I23
I21
I22
I5
tp677
I0
tp678
F0.0
s((I32
I5
I19
I0
tp679
I0
tp680
I0
s((I27
I4
I20
I-3
tp681
I0
tp682
F0.0
s((I21
I12
I26
I5
tp683
I1
tp684
F0.0
s((I23
I0
I24
I0
tp685
I1
tp686
F0.0
s((I8
I4
I22
I5
tp687
I0
tp688
I0
s((I22
I19
I16
I5
tp689
I0
tp690
F0.0
s((I28
I18
I18
I-3
tp691
I0
tp692
I0
s((I29
I2
I16
I-4
tp693
I1
tp694
F0.0
s((I28
I10
I18
I4
tp695
I1
tp696
I0
s((I15
I10
I22
I0
tp697
I0
tp698
F0.0
s(g157
I0
tp699
I0
s((I23
I9
I26
I-3
tp700
I1
tp701
F0.0
s((I32
I23
I26
I-1
tp702
I1
tp703
I0
s((I29
I10
I19
I4
tp704
I0
tp705
I0
s((I27
I3
I16
I-3
tp706
I0
tp707
I0
s((I26
I10
I23
I-1
tp708
I0
tp709
I0
s((I22
I36
I19
I0
tp710
I1
tp711
I0
s((I32
I14
I18
I0
tp712
I1
tp713
F0.0
s((I20
I35
I16
I-3
tp714
I1
tp715
F0.0
s((I23
I11
I23
I5
tp716
I1
tp717
I0
s((I21
I34
I26
I-3
tp718
I0
tp719
I0
s((I31
I11
I18
I2
tp720
I1
tp721
F0.0
s((I24
I24
I24
I3
tp722
I0
tp723
F0.0
s(g630
I1
tp724
I0
s(g4
I0
tp725
F0.0
s((I32
I28
I22
I0
tp726
I1
tp727
I0
s((I10
I29
I23
I-3
tp728
I1
tp729
I0
s((I32
I6
I20
I-3
tp730
I0
tp731
I0
s((I19
I16
I23
I-4
tp732
I1
tp733
F0.0
s((I18
I41
I19
I-3
tp734
I1
tp735
F0.0
s((I27
I9
I26
I4
tp736
I1
tp737
F0.0
s((I32
I7
I23
I-1
tp738
I1
tp739
F0.0
s((I18
I28
I20
I3
tp740
I1
tp741
F0.0
s((I19
I43
I21
I-3
tp742
I0
tp743
F0.0
s((I8
I6
I21
I5
tp744
I1
tp745
I0
s((I25
I35
I23
I-3
tp746
I0
tp747
F0.0
s((I19
I24
I23
I0
tp748
I0
tp749
F0.0
s((I15
I46
I22
I-2
tp750
I0
tp751
F0.0
s((I31
I18
I20
I-3
tp752
I0
tp753
I0
s((I19
I43
I25
I-3
tp754
I1
tp755
F0.0
s((I32
I20
I26
I0
tp756
I0
tp757
F0.0
s((I31
I3
I19
I2
tp758
I1
tp759
F0.0
s((I15
I26
I17
I-3
tp760
I1
tp761
I0
s((I26
I21
I16
I4
tp762
I0
tp763
F0.0
s((I15
I46
I19
I-3
tp764
I0
tp765
I0
s((I15
I46
I20
I-2
tp766
I1
tp767
I0
s((I26
I7
I19
I0
tp768
I0
tp769
F0.0
s((I31
I15
I18
I-3
tp770
I1
tp771
I0
s(g219
I1
tp772
I0
s((I22
I38
I18
I-3
tp773
I1
tp774
I0
s((I19
I28
I23
I-3
tp775
I0
tp776
I0
s((I28
I8
I21
I2
tp777
I1
tp778
F0.0
s((I16
I45
I17
I-1
tp779
I1
tp780
I0
s(g449
I1
tp781
F0.0
s((I31
I22
I19
I0
tp782
I1
tp783
I0
s((I28
I32
I21
I-3
tp784
I0
tp785
F0.0
s(g20
I0
tp786
F0.0
s((I29
I28
I16
I-3
tp787
I0
tp788
I0
s((I32
I12
I18
I0
tp789
I0
tp790
I0
s((I30
I20
I21
I2
tp791
I0
tp792
F0.0
s((I16
I44
I20
I0
tp793
I0
tp794
F0.0
s((I16
I43
I23
I1
tp795
I1
tp796
I0
s(g32
I0
tp797
I0
s((I25
I10
I24
I0
tp798
I1
tp799
I0
s((I32
I15
I20
I0
tp800
I0
tp801
F0.0
s(g39
I1
tp802
I0
s((I20
I2
I23
I0
tp803
I0
tp804
I0
s((I28
I25
I19
I-3
tp805
I1
tp806
F0.0
s((I20
I16
I16
I-3
tp807
I1
tp808
F0.0
s((I18
I44
I17
I-4
tp809
I1
tp810
F0.0
s(g51
I1
tp811
F0.0
s((I28
I27
I20
I3
tp812
I0
tp813
I0
s(g57
I1
tp814
F0.0
s(g61
I1
tp815
I0
s(g487
I0
tp816
F0.0
s(g63
I1
tp817
F0.0
s((I25
I2
I17
I-2
tp818
I1
tp819
F0.0
s((I29
I24
I23
I-5
tp820
I1
tp821
F0.0
s(g69
I0
tp822
I0
s((I12
I40
I25
I4
tp823
I0
tp824
I0
s(g73
I0
tp825
I0
s(g77
I1
tp826
I0
s((I24
I38
I17
I-3
tp827
I0
tp828
F0.0
s(g83
I0
tp829
F0.0
s(g85
I0
tp830
F0.0
s((I20
I26
I20
I-3
tp831
I0
tp832
F0.0
s((I15
I21
I17
I2
tp833
I1
tp834
I0
s((I30
I20
I19
I2
tp835
I1
tp836
F0.0
s((I29
I29
I23
I-3
tp837
I1
tp838
I0
s(g91
I1
tp839
F0.0
s((I31
I3
I21
I0
tp840
I1
tp841
F0.0
s(g22
I0
tp842
F0.0
s((I16
I45
I26
I-1
tp843
I1
tp844
I0
s(g99
I0
tp845
I0
s(g837
I0
tp846
F0.0
s(g105
I0
tp847
F0.0
s((I32
I22
I17
I0
tp848
I1
tp849
F0.0
s((I19
I17
I16
I5
tp850
I1
tp851
I0
s(g109
I0
tp852
F0.0
s(g111
I0
tp853
I0
s((I16
I45
I17
I-2
tp854
I0
tp855
F0.0
s(g117
I0
tp856
F0.0
s(g119
I1
tp857
I0
s((I18
I43
I20
I-3
tp858
I0
tp859
F0.0
s(g43
I1
tp860
F0.0
s((I32
I17
I17
I-3
tp861
I1
tp862
F0.0
s((I27
I28
I17
I3
tp863
I1
tp864
I0
s(g49
I1
tp865
F0.0
s((I32
I20
I23
I0
tp866
I1
tp867
I0
s(g127
I1
tp868
F0.0
s((I22
I33
I26
I-1
tp869
I1
tp870
F0.0
s(g133
I1
tp871
F0.0
s((I30
I16
I26
I-3
tp872
I1
tp873
I0
s((I23
I17
I26
I5
tp874
I1
tp875
F0.0
s(g137
I1
tp876
F0.0
s(g141
I0
tp877
I0
s((I26
I10
I20
I5
tp878
I1
tp879
F0.0
s(g872
I0
tp880
F0.0
s((I31
I17
I18
I-3
tp881
I1
tp882
I0
s(g573
I1
tp883
I0
s((I30
I17
I26
I3
tp884
I0
tp885
I0
s(g588
I0
tp886
I0
s(g153
I0
tp887
F0.0
s((I17
I7
I23
I5
tp888
I0
tp889
I0
s((I27
I13
I23
I3
tp890
I1
tp891
I0
s((I19
I23
I17
I5
tp892
I0
tp893
F0.0
s((I12
I40
I23
I4
tp894
I1
tp895
I0
s((I19
I25
I21
I-3
tp896
I0
tp897
I0
s(g159
I1
tp898
I0
s((I15
I36
I25
I-2
tp899
I0
tp900
F0.0
s((I21
I5
I25
I3
tp901
I1
tp902
I0
s(g107
I0
tp903
I0
s((I25
I7
I20
I5
tp904
I0
tp905
I0
s((I7
I37
I23
I5
tp906
I0
tp907
F0.0
s((I17
I21
I16
I-3
tp908
I1
tp909
I0
s(g173
I0
tp910
F0.0
s(g177
I1
tp911
I0
s((I29
I24
I19
I-1
tp912
I1
tp913
F0.0
s(g618
I1
tp914
F0.0
s((I27
I28
I18
I-3
tp915
I1
tp916
F0.0
s(g187
I0
tp917
I0
s((I28
I24
I22
I5
tp918
I1
tp919
I0
s(g189
I0
tp920
F0.0
s((I13
I15
I22
I5
tp921
I0
tp922
I0
s(g139
I0
tp923
F0.0
s((I28
I21
I20
I1
tp924
I1
tp925
F0.0
s((I20
I27
I16
I5
tp926
I0
tp927
F0.0
s(g197
I1
tp928
F0.0
s(g201
I0
tp929
I0
s(g203
I0
tp930
F0.0
s((I28
I34
I22
I-3
tp931
I1
tp932
F0.0
s(g211
I0
tp933
I0
s((I23
I33
I24
I0
tp934
I0
tp935
I0
s(g8
I1
tp936
F0.0
s((I17
I44
I19
I-4
tp937
I0
tp938
F0.0
s(g915
I0
tp939
I0
s((I11
I27
I23
I0
tp940
I1
tp941
I0
s((I30
I14
I20
I-3
tp942
I1
tp943
F0.0
s(g229
I1
tp944
F0.0
s(g397
I0
tp945
I0
s((I24
I29
I20
I-3
tp946
I0
tp947
F0.0
s(g235
I1
tp948
F0.0
s((I26
I35
I20
I0
tp949
I1
tp950
F0.0
s(g239
I1
tp951
I0
s((I15
I46
I16
I-2
tp952
I1
tp953
F0.0
s(g167
I1
tp954
I0
s(g247
I0
tp955
I0
s((I24
I30
I19
I-3
tp956
I0
tp957
I0
s((I8
I28
I25
I5
tp958
I1
tp959
I0
s((I25
I14
I26
I-3
tp960
I0
tp961
F0.0
s(g34
I1
tp962
I0
s((I18
I38
I16
I3
tp963
I1
tp964
F0.0
s(g123
I1
tp965
F0.0
s(g251
I0
tp966
I0
s((I21
I37
I26
I-3
tp967
I0
tp968
I0
s(g185
I1
tp969
F0.0
s((I29
I7
I26
I-3
tp970
I1
tp971
I0
s((I20
I25
I18
I5
tp972
I0
tp973
I0
s(g257
I1
tp974
I0
s(g259
I1
tp975
I0
s((I29
I9
I20
I3
tp976
I0
tp977
I0
s(g53
I1
tp978
F0.0
s(g6
I0
tp979
F0.0
s((I27
I2
I20
I3
tp980
I1
tp981
F0.0
s(g263
I0
tp982
I0
s(g269
I1
tp983
F0.0
s(g271
I1
tp984
F50.0
s(g12
I1
tp985
I0
s(g14
I1
tp986
F0.0
s(g275
I1
tp987
F0.0
s(g16
I1
tp988
I0
s(g279
I0
tp989
F0.0
s(g18
I0
tp990
F0.0
s(g281
I0
tp991
I0
s(g894
I0
tp992
F0.0
s(g958
I0
tp993
F0.0
s((I15
I46
I26
I-3
tp994
I0
tp995
F0.0
s(g97
I1
tp996
F0.0
s(g24
I1
tp997
F0.0
s(g288
I1
tp998
I0
s((I17
I3
I25
I5
tp999
I1
tp1000
F0.0
s(g28
I0
tp1001
F0.0
s(g245
I1
tp1002
F0.0
s(g30
I0
tp1003
F0.0
s(g294
I1
tp1004
I0
s(g298
I1
tp1005
I0
s((I15
I42
I26
I2
tp1006
I1
tp1007
F0.0
s(g302
I0
tp1008
I0
s(g306
I1
tp1009
F0.0
s(g41
I1
tp1010
I0
s(g308
I1
tp1011
I0
s(g310
I1
tp1012
I0
s(g265
I0
tp1013
I0
s(g290
I0
tp1014
F0.0
s(g318
I0
tp1015
I0
s(g55
I0
tp1016
F0.0
s(g59
I1
tp1017
F0.0
s(g324
I1
tp1018
I0
s(g330
I0
tp1019
F0.0
s(g334
I1
tp1020
I0
s(g71
I0
tp1021
I0
s(g143
I1
tp1022
F0.0
s(g75
I1
tp1023
F0.0
s(g338
I0
tp1024
I0
s(g342
I0
tp1025
I0
s(g79
I1
tp1026
I0
s(g344
I0
tp1027
F0.0
s(g81
I1
tp1028
I0
s(g346
I1
tp1029
I0
s(g348
I1
tp1030
F0.0
s(g87
I1
tp1031
I0
s(g26
I1
tp1032
I0
s(g89
I0
tp1033
I0
s(g358
I1
tp1034
F0.0
s(g95
I0
tp1035
I0
s(g360
I0
tp1036
I0
s(g533
I0
tp1037
F0.0
s(g101
I1
tp1038
I0
s(g364
I0
tp1039
F0.0
s(g103
I1
tp1040
F0.0
s(g368
I1
tp1041
F0.0
s((I13
I7
I22
I3
tp1042
I1
tp1043
I0
s(g163
I0
tp1044
F0.0
s(g812
I1
tp1045
F0.0
s(g374
I1
tp1046
F0.0
s(g113
I0
tp1047
I0
s(g376
I0
tp1048
F0.0
s(g169
I1
tp1049
F0.0
s(g65
I1
tp1050
F0.0
s(g121
I0
tp1051
F0.0
s(g389
I0
tp1052
I0
s(g395
I1
tp1053
F0.0
s(g129
I1
tp1054
I0
s(g775
I1
tp1055
F0.0
s(g131
I1
tp1056
F0.0
s(g399
I1
tp1057
F0.0
s(g402
I1
tp1058
F0.0
s(g135
I1
tp1059
F0.0
s(g451
I0
tp1060
F0.0
s(g782
I0
tp1061
F0.0
s(g404
I1
tp1062
I0
s(g791
I1
tp1063
I0
s(g408
I1
tp1064
F0.0
s(g145
I1
tp1065
F0.0
s(g410
I0
tp1066
F0.0
s((I23
I36
I23
I-1
tp1067
I0
tp1068
F0.0
s(g831
I1
tp1069
I0
s(g207
I0
tp1070
I0
s(g151
I1
tp1071
F0.0
s(g414
I1
tp1072
F0.0
s(g213
I0
tp1073
I0
s(g155
I1
tp1074
I0
s(g418
I0
tp1075
I0
s(g422
I0
tp1076
I0
s(g424
I1
tp1077
I0
s(g221
I1
tp1078
I0
s(g430
I0
tp1079
I0
s(g435
I0
tp1080
F0.0
s(g437
I0
tp1081
I0
s(g161
I0
tp1082
F0.0
s(g443
I1
tp1083
I0
s(g445
I1
tp1084
I0
s(g165
I1
tp1085
I0
s(g866
I0
tp1086
F0.0
s(g980
I0
tp1087
I0
s(g874
I0
tp1088
I0
s(g499
I0
tp1089
F0.0
s(g171
I1
tp1090
F0.0
s(g453
I0
tp1091
F0.0
s(g175
I1
tp1092
I0
s(g179
I0
tp1093
I0
s(g181
I1
tp1094
I0
s(g183
I1
tp1095
I0
s(g612
I1
tp1096
I0
s(g463
I0
tp1097
F0.0
s(g191
I1
tp1098
I0
s(g193
I0
tp1099
F0.0
s(g195
I1
tp1100
I0
s(g199
I1
tp1101
F0.0
s(g205
I1
tp1102
I0
s(g481
I1
tp1103
I0
s(g209
I0
tp1104
F0.0
s(g485
I0
tp1105
I0
s(g215
I0
tp1106
F0.0
s(g795
I0
tp1107
F0.0
s(g890
I0
tp1108
F0.0
s(g491
I0
tp1109
I0
s(g432
I0
tp1110
F0.0
s(g906
I1
tp1111
I0
s(g497
I1
tp1112
F0.0
s(g225
I0
tp1113
F0.0
s(g227
I1
tp1114
I0
s(g231
I1
tp1115
I0
s(g503
I1
tp1116
I0
s(g237
I1
tp1117
F0.0
s((I31
I22
I19
I-3
tp1118
I0
tp1119
F0.0
s(g509
I0
tp1120
I0
s(g241
I1
tp1121
I0
s(g511
I1
tp1122
I0
s(g249
I1
tp1123
I0
s(g523
I0
tp1124
F0.0
s(g253
I1
tp1125
I0
s((I16
I13
I24
I-3
tp1126
I1
tp1127
I0
s(g255
I1
tp1128
I0
s(g312
I0
tp1129
I0
s(g535
I0
tp1130
I0
s(g537
I0
tp1131
I0
s(g539
I1
tp1132
F0.0
s(g543
I0
tp1133
I0
s(g547
I1
tp1134
I0
s(g328
I1
tp1135
I0
s((I13
I40
I17
I4
tp1136
I0
tp1137
F0.0
s(g999
I0
tp1138
I0
s(g554
I1
tp1139
I0
s(g267
I1
tp1140
I0
s(g556
I1
tp1141
F0.0
s(g519
I0
tp1142
I0
s(g904
I1
tp1143
F0.0
s(g561
I0
tp1144
I0
s(g273
I0
tp1145
I0
s(g352
I1
tp1146
I0
s(g569
I0
tp1147
F0.0
s(g67
I0
tp1148
F0.0
s(g283
I1
tp1149
I0
s(g505
I1
tp1150
F0.0
s(g286
I0
tp1151
I0
s((I27
I6
I26
I-3
tp1152
I0
tp1153
F0.0
s((I32
I25
I25
I-2
tp1154
I0
tp1155
I0
s(g577
I1
tp1156
I0
s(g580
I1
tp1157
F0.0
s(g292
I1
tp1158
I0
s(g1126
I0
tp1159
F50.0
s(g370
I1
tp1160
I0
s(g296
I1
tp1161
I0
s(g300
I1
tp1162
F0.0
s(g525
I1
tp1163
F0.0
s(g304
I1
tp1164
F0.0
s(g590
I0
tp1165
I0
s(g594
I0
tp1166
I0
s(g529
I1
tp1167
I0
s(g314
I0
tp1168
I0
s(g316
I0
tp1169
F0.0
s(g391
I1
tp1170
I0
s(g320
I0
tp1171
F0.0
s(g541
I1
tp1172
I0
s(g322
I0
tp1173
I0
s(g610
I0
tp1174
F0.0
s(g326
I1
tp1175
I0
s(g823
I1
tp1176
F0.0
s(g332
I0
tp1177
F0.0
s(g336
I1
tp1178
I0
s(g616
I1
tp1179
I0
s(g340
I1
tp1180
F0.0
s(g624
I1
tp1181
F0.0
s(g628
I0
tp1182
F0.0
s(g632
I0
tp1183
F0.0
s(g634
I0
tp1184
I0
s(g350
I0
tp1185
I0
s(g638
I0
tp1186
F0.0
s(g567
I0
tp1187
F0.0
s(g640
I1
tp1188
F0.0
s(g644
I1
tp1189
I0
s(g354
I0
tp1190
I0
s(g648
I1
tp1191
F0.0
s(g356
I1
tp1192
F0.0
s(g1006
I0
tp1193
I0
s(g652
I1
tp1194
I0
s(g261
I1
tp1195
F0.0
s(g362
I1
tp1196
F0.0
s(g662
I1
tp1197
I0
s(g736
I0
tp1198
I0
s(g582
I0
tp1199
F0.0
s(g668
I0
tp1200
I0
s(g372
I0
tp1201
I0
s(g670
I1
tp1202
F0.0
s(g672
I1
tp1203
F0.0
s(g675
I1
tp1204
F0.0
s(g379
I1
tp1205
I0
s(g381
I1
tp1206
F0.0
s(g383
I0
tp1207
F0.0
s(g385
I1
tp1208
I0
s(g679
I1
tp1209
F0.0
s(g387
I0
tp1210
I0
s(g681
I1
tp1211
I0
s((I19
I40
I20
I0
tp1212
I1
tp1213
I0
s((I12
I19
I17
I4
tp1214
I1
tp1215
F0.0
s(g393
I0
tp1216
I0
s(g685
I0
tp1217
I0
s(g689
I1
tp1218
I0
s(g693
I0
tp1219
I0
s(g700
I0
tp1220
I0
s(g406
I0
tp1221
F0.0
s(g704
I1
tp1222
F0.0
s(g1136
I1
tp1223
I0
s(g720
I0
tp1224
I0
s((I11
I39
I17
I5
tp1225
I1
tp1226
I0
s(g921
I1
tp1227
F0.0
s(g710
I0
tp1228
F0.0
s(g416
I0
tp1229
I0
s(g420
I1
tp1230
I0
s(g646
I1
tp1231
F0.0
s(g489
I0
tp1232
I0
s(g426
I1
tp1233
I0
s(g428
I1
tp1234
I0
s((I4
I26
I25
I5
tp1235
I1
tp1236
I0
s(g656
I0
tp1237
F0.0
s(g803
I1
tp1238
F0.0
s(g818
I0
tp1239
I0
s(g501
I1
tp1240
F0.0
s(g728
I0
tp1241
F0.0
s(g441
I1
tp1242
I0
s(g507
I0
tp1243
I0
s(g447
I1
tp1244
F0.0
s(g734
I0
tp1245
I0
s(g515
I0
tp1246
F0.0
s(g740
I0
tp1247
I0
s(g742
I1
tp1248
I0
s(g455
I1
tp1249
I0
s(g457
I0
tp1250
I0
s(g459
I0
tp1251
F0.0
s(g748
I1
tp1252
I0
s(g461
I1
tp1253
I0
s(g752
I1
tp1254
F0.0
s(g465
I1
tp1255
F0.0
s(g756
I1
tp1256
I0
s(g758
I0
tp1257
I0
s(g469
I0
tp1258
F0.0
s(g471
I1
tp1259
I0
s(g473
I1
tp1260
F0.0
s(g545
I1
tp1261
I0
s(g475
I1
tp1262
F0.0
s(g766
I0
tp1263
F0.0
s(g477
I1
tp1264
I0
s(g479
I0
tp1265
I0
s(g483
I0
tp1266
I0
s(g976
I1
tp1267
F0.0
s(g773
I0
tp1268
F0.0
s((I19
I43
I20
I-3
tp1269
I0
tp1270
F0.0
s(g777
I0
tp1271
I0
s(g412
I1
tp1272
F0.0
s(g493
I1
tp1273
F0.0
s(g495
I0
tp1274
I0
s((I27
I7
I18
I5
tp1275
I0
tp1276
F0.0
s(g784
I1
tp1277
I0
s(g787
I1
tp1278
F0.0
s(g789
I1
tp1279
F0.0
s(g636
I1
tp1280
I0
s(g513
I1
tp1281
I0
s(g1042
I0
tp1282
F0.0
s(g584
I1
tp1283
I0
s(g798
I0
tp1284
F0.0
s(g521
I1
tp1285
F0.0
s(g805
I0
tp1286
I0
s(g549
I1
tp1287
F0.0
s(g807
I0
tp1288
I0
s(g531
I1
tp1289
F0.0
s(g809
I0
tp1290
I0
s(g606
I1
tp1291
I0
s(g115
I1
tp1292
I0
s(g1225
I0
tp1293
F0.0
s(g718
I1
tp1294
F0.0
s(g820
I0
tp1295
I0
s(g552
I1
tp1296
F0.0
s(g45
I1
tp1297
I0
s(g1269
I1
tp1298
F0.0
s(g558
I1
tp1299
F0.0
s(g1275
I1
tp1300
I0
s(g1212
I0
tp1301
F0.0
s(g563
I1
tp1302
I0
s(g827
I1
tp1303
I0
s(g565
I1
tp1304
F0.0
s(g779
I0
tp1305
F0.0
s(g833
I0
tp1306
F0.0
s(g835
I0
tp1307
I0
s(g840
I0
tp1308
I0
s(g571
I1
tp1309
I0
s(g843
I0
tp1310
F0.0
s(g575
I0
tp1311
I0
s(g660
I0
tp1312
I0
s(g848
I0
tp1313
I0
s(g1235
I0
tp1314
F0.0
s(g850
I0
tp1315
F0.0
s(g586
I0
tp1316
I0
s(g800
I1
tp1317
I0
s(g854
I1
tp1318
F0.0
s(g592
I1
tp1319
F0.0
s(g596
I1
tp1320
I0
s(g858
I1
tp1321
I0
s(g125
I0
tp1322
I0
s(g861
I0
tp1323
I0
s(g598
I0
tp1324
F0.0
s(g863
I0
tp1325
F0.0
s(g600
I0
tp1326
I0
s(g602
I1
tp1327
F0.0
s(g604
I0
tp1328
F0.0
s(g36
I0
tp1329
F0.0
s(g608
I0
tp1330
F0.0
s(g664
I0
tp1331
I0
s(g770
I0
tp1332
F0.0
s(g869
I0
tp1333
I0
s(g614
I1
tp1334
I0
s(g439
I0
tp1335
F0.0
s(g1214
I0
tp1336
I0
s(g702
I0
tp1337
F0.0
s(g878
I0
tp1338
I0
s(g620
I0
tp1339
I0
s(g622
I0
tp1340
F0.0
s(g626
I1
tp1341
I0
s(g881
I0
tp1342
F0.0
s(g1152
I1
tp1343
I0
s(g884
I1
tp1344
F0.0
s(g888
I1
tp1345
F0.0
s(g642
I0
tp1346
F0.0
s(g892
I1
tp1347
I0
s(g93
I1
tp1348
I0
s(g650
I0
tp1349
F0.0
s(g654
I0
tp1350
I0
s(g896
I1
tp1351
F0.0
s(g899
I1
tp1352
I0
s(g1118
I1
tp1353
I0
s(g666
I0
tp1354
I0
s(g217
I0
tp1355
I0
s(g908
I0
tp1356
F0.0
s(g233
I0
tp1357
I0
s(g677
I1
tp1358
I0
s(g746
I1
tp1359
I0
s(g683
I0
tp1360
I0
s(g687
I1
tp1361
F0.0
s(g691
I1
tp1362
F0.0
s(g918
I0
tp1363
F0.0
s(g695
I0
tp1364
F0.0
s(g697
I1
tp1365
I0
s(g760
I0
tp1366
F0.0
s(g926
I1
tp1367
I0
s(g706
I1
tp1368
F0.0
s(g967
I1
tp1369
F0.0
s(g708
I1
tp1370
F0.0
s(g768
I1
tp1371
I0
s(g712
I0
tp1372
I0
s(g931
I0
tp1373
I0
s(g714
I0
tp1374
I0
s(g934
I1
tp1375
F0.0
s(g716
I0
tp1376
F0.0
s(g937
I1
tp1377
I0
s(g149
I1
tp1378
F0.0
s(g744
I0
tp1379
F0.0
s(g722
I1
tp1380
I0
s(g940
I0
tp1381
F0.0
s(g942
I0
tp1382
F0.0
s(g901
I0
tp1383
F0.0
s(g726
I0
tp1384
F0.0
s(g946
I1
tp1385
I0
s(g730
I1
tp1386
F0.0
s(g949
I0
tp1387
I0
s(g952
I0
tp1388
I0
s(g732
I0
tp1389
I0
s(g793
I1
tp1390
I0
s(g738
I0
tp1391
I0
s(g956
I1
tp1392
F0.0
s(g960
I1
tp1393
I0
s(g963
I0
tp1394
I0
s(g912
I0
tp1395
I0
s(g750
I1
tp1396
I0
s(g970
I0
tp1397
F0.0
s(g972
I1
tp1398
F0.0
s(g754
I0
tp1399
I0
s(g762
I1
tp1400
I0
s(g924
I0
tp1401
I0
s(g764
I1
tp1402
F0.0
s(g994
I1
tp1403
I0
s(g1154
I1
tp1404
F0.0
s(g1067
I1
tp1405
I0
s.