ccollections
defaultdict
p0
(c__builtin__
int
p1
tp2
Rp3
((I21
I41
I24
I-3
tp4
I1
tp5
I0
s((I33
I4
I16
I0
tp6
I0
tp7
F0.0
s((I29
I23
I19
I-4
tp8
I0
tp9
I0
s((I15
I46
I24
I-2
tp10
I1
tp11
F0.0
s((I31
I30
I22
I-3
tp12
I1
tp13
I0
s((I27
I32
I25
I-3
tp14
I1
tp15
I0
s((I16
I43
I26
I1
tp16
I1
tp17
I0
s((I16
I43
I21
I1
tp18
I1
tp19
I0
s((I31
I12
I22
I2
tp20
I1
tp21
F0.0
s((I25
I33
I19
I-3
tp22
I0
tp23
F0.0
s((I28
I20
I22
I-3
tp24
I1
tp25
F0.0
s((I8
I12
I22
I5
tp26
I0
tp27
F0.0
s((I28
I22
I16
I-3
tp28
I1
tp29
I0
s((I19
I6
I16
I5
tp30
I0
tp31
I0
s((I31
I20
I26
I2
tp32
I1
tp33
I0
s((I29
I14
I16
I-1
tp34
I1
tp35
F0.0
s((I7
I2
I18
I-4
tp36
I1
tp37
F0.0
s((I24
I9
I16
I5
tp38
I1
tp39
I0
s((I27
I5
I24
I3
tp40
I1
tp41
F0.0
s((I16
I45
I26
I-2
tp42
I0
tp43
F0.0
s((I18
I3
I27
I5
tp44
I1
tp45
F0.0
s((I15
I42
I17
I2
tp46
I0
tp47
F0.0
s((I31
I3
I17
I0
tp48
I0
tp49
F0.0
s((I3
I26
I17
I5
tp50
I0
tp51
F0.0
s((I32
I21
I17
I1
tp52
I0
tp53
F0.0
s((I19
I27
I16
I3
tp54
I1
tp55
F0.0
s((I30
I6
I24
I3
tp56
I0
tp57
F0.0
s((I27
I6
I25
I-3
tp58
I1
tp59
I0
s((I16
I45
I25
I-2
tp60
I0
tp61
F0.0
s((I29
I29
I19
I-3
tp62
I1
tp63
I0
s((I28
I8
I17
I3
tp64
I1
tp65
F0.0
s((I22
I40
I22
I-3
tp66
I1
tp67
F0.0
s((I25
I12
I17
I-3
tp68
I1
tp69
F0.0
s((I28
I9
I17
I-3
tp70
I0
tp71
F0.0
s((I23
I37
I16
I0
tp72
I1
tp73
I0
s((I28
I10
I26
I3
tp74
I1
tp75
F0.0
s((I30
I11
I17
I0
tp76
I0
tp77
F0.0
s((I31
I3
I19
I0
tp78
I1
tp79
I0
s((I30
I21
I22
I3
tp80
I1
tp81
F0.0
s((I17
I14
I21
I5
tp82
I1
tp83
I0
s((I16
I45
I24
I-2
tp84
I1
tp85
F0.0
s((I18
I28
I21
I-3
tp86
I0
tp87
I0
s((I19
I40
I16
I-2
tp88
I1
tp89
F0.0
s((I28
I5
I27
I0
tp90
I0
tp91
F0.0
s((I21
I18
I25
I-3
tp92
I1
tp93
I0
s((I12
I40
I23
I4
tp94
I1
tp95
I0
s((I32
I14
I25
I1
tp96
I0
tp97
I0
s((I17
I17
I16
I5
tp98
I0
tp99
F0.0
s((I31
I29
I27
I-3
tp100
I0
tp101
F0.0
s((I31
I2
I21
I2
tp102
I1
tp103
F0.0
s((I19
I43
I26
I-3
tp104
I0
tp105
I0
s((I21
I18
I19
I-3
tp106
I1
tp107
I0
s((I30
I23
I27
I3
tp108
I1
tp109
I0
s((I14
I41
I21
I3
tp110
I0
tp111
I0
s((I16
I45
I22
I-2
tp112
I1
tp113
F0.0
s((I14
I11
I16
I-3
tp114
I0
tp115
F0.0
s((I16
I44
I19
I0
tp116
I1
tp117
F0.0
s((I33
I27
I17
I0
tp118
I0
tp119
I0
s((I31
I6
I19
I-1
tp120
I0
tp121
I0
s((I22
I3
I25
I-3
tp122
I0
tp123
F0.0
s((I25
I38
I17
I-3
tp124
I1
tp125
I0
s((I31
I20
I19
I-3
tp126
I0
tp127
F0.0
s((I19
I41
I22
I-1
tp128
I0
tp129
I0
s((I19
I25
I17
I-3
tp130
I1
tp131
I0
s((I28
I11
I27
I0
tp132
I0
tp133
F0.0
s((I32
I23
I26
I0
tp134
I1
tp135
F0.0
s((I31
I17
I24
I0
tp136
I1
tp137
F0.0
s((I32
I6
I19
I1
tp138
I1
tp139
F0.0
s((I32
I14
I22
I0
tp140
I1
tp141
F0.0
s((I23
I17
I17
I-1
tp142
I0
tp143
F0.0
s((I19
I6
I22
I5
tp144
I0
tp145
F0.0
s((I19
I10
I18
I2
tp146
I1
tp147
F70.0
s((I29
I28
I19
I-3
tp148
I1
tp149
F0.0
s((I18
I42
I16
I-4
tp150
I1
tp151
I0
s((I23
I35
I24
I0
tp152
I0
tp153
F0.0
s((I23
I35
I19
I0
tp154
I1
tp155
F0.0
s((I21
I3
I16
I-3
tp156
I1
tp157
I0
s((I29
I20
I16
I0
tp158
I1
tp159
F0.0
s((I15
I2
I17
I5
tp160
I1
tp161
F0.0
s((I26
I3
I23
I-3
tp162
I0
tp163
I0
s((I22
I7
I17
I0
tp164
I0
tp165
F0.0
s((I31
I27
I22
I-3
tp166
I1
tp167
I0
s((I30
I5
I17
I-3
tp168
I0
tp169
I0
s((I28
I12
I16
I2
tp170
I1
tp171
I0
s((I27
I24
I19
I3
tp172
I0
tp173
I0
s((I25
I21
I24
I-3
tp174
I0
tp175
F0.0
s((I17
I32
I16
I5
tp176
I0
tp177
I0
s((I12
I6
I22
I-3
tp178
I1
tp179
I0
s((I23
I29
I17
I-4
tp180
I0
tp181
F0.0
s((I28
I26
I22
I0
tp182
I1
tp183
I0
s((I20
I22
I17
I0
tp184
I0
tp185
I0
s((I7
I37
I23
I5
tp186
I1
tp187
I0
s((I17
I28
I17
I4
tp188
I0
tp189
I0
s((I27
I23
I27
I-3
tp190
I0
tp191
F0.0
s(g154
I0
tp192
I0
s((I24
I35
I25
I-3
tp193
I0
tp194
I0
s((I28
I18
I17
I-3
tp195
I0
tp196
I0
s((I22
I17
I21
I4
tp197
I0
tp198
F0.0
s((I31
I12
I16
I0
tp199
I0
tp200
I0
s((I27
I3
I25
I1
tp201
I0
tp202
F0.0
s((I28
I35
I22
I-3
tp203
I0
tp204
F0.0
s((I3
I26
I26
I5
tp205
I1
tp206
I0
s((I20
I11
I18
I3
tp207
I1
tp208
I0
s((I14
I8
I21
I-3
tp209
I1
tp210
I0
s((I5
I36
I17
I5
tp211
I0
tp212
I0
s((I15
I24
I22
I-3
tp213
I0
tp214
F0.0
s(g76
I1
tp215
I0
s((I18
I3
I21
I-3
tp216
I0
tp217
I0
s((I30
I8
I24
I0
tp218
I0
tp219
F0.0
s((I28
I32
I24
I-4
tp220
I1
tp221
F0.0
s((I21
I37
I25
I-3
tp222
I0
tp223
I0
s((I17
I37
I27
I3
tp224
I0
tp225
I0
s((I19
I43
I27
I-3
tp226
I1
tp227
I0
s((I31
I25
I24
I2
tp228
I1
tp229
F0.0
s((I7
I34
I17
I-3
tp230
I0
tp231
F0.0
s((I18
I44
I24
I-3
tp232
I1
tp233
F0.0
s((I15
I5
I21
I0
tp234
I1
tp235
F0.0
s((I28
I12
I19
I-3
tp236
I0
tp237
I0
s((I17
I35
I16
I-3
tp238
I1
tp239
F0.0
s((I27
I22
I26
I5
tp240
I0
tp241
I0
s((I32
I26
I22
I1
tp242
I0
tp243
F0.0
s((I29
I3
I24
I-3
tp244
I1
tp245
I0
s((I31
I16
I17
I-3
tp246
I0
tp247
I0
s((I29
I28
I17
I0
tp248
I0
tp249
I0
s((I15
I31
I21
I-3
tp250
I1
tp251
F0.0
s((I15
I43
I23
I1
tp252
I0
tp253
F0.0
s((I23
I0
I25
I-1
tp254
I1
tp255
F0.0
s((I32
I30
I19
I0
tp256
I0
tp257
F0.0
s((I25
I36
I22
I-3
tp258
I1
tp259
I0
s((I17
I9
I18
I5
tp260
I0
tp261
F0.0
s((I15
I46
I27
I-2
tp262
I1
tp263
I0
s((I18
I20
I25
I0
tp264
I0
tp265
I0
s((I30
I3
I22
I1
tp266
I0
tp267
I0
s((I30
I8
I26
I-4
tp268
I0
tp269
I0
s((I16
I43
I25
I1
tp270
I1
tp271
F0.0
s((I21
I29
I16
I0
tp272
I0
tp273
F0.0
s((I31
I2
I19
I-4
tp274
I1
tp275
I0
s(g50
I1
tp276
I0
s((I32
I17
I19
I0
tp277
I1
tp278
I0
s((I25
I37
I22
I-3
tp279
I1
tp280
F0.0
s((I19
I40
I17
I0
tp281
I1
tp282
I0
s((I22
I3
I18
I2
tp283
I0
tp284
I0
s((I21
I10
I17
I-3
tp285
I1
tp286
I0
s((I19
I40
I21
I0
tp287
I0
tp288
F0.0
s((I18
I40
I25
I-3
tp289
I1
tp290
F0.0
s((I8
I3
I16
I5
tp291
I0
tp292
I0
s((I7
I28
I17
I3
tp293
I0
tp294
F0.0
s((I19
I40
I19
I0
tp295
I0
tp296
I0
s((I22
I34
I22
I2
tp297
I0
tp298
I0
s((I10
I8
I22
I2
tp299
I1
tp300
F0.0
s((I3
I10
I22
I5
tp301
I1
tp302
F0.0
s((I29
I26
I19
I0
tp303
I1
tp304
F0.0
s((I25
I27
I24
I0
tp305
I1
tp306
I0
s((I21
I8
I18
I-3
tp307
I0
tp308
F70.0
s((I22
I1
I24
I5
tp309
I1
tp310
I0
s((I29
I12
I25
I4
tp311
I0
tp312
F0.0
s((I21
I31
I17
I-1
tp313
I1
tp314
F0.0
s((I18
I31
I21
I-3
tp315
I0
tp316
I0
s((I25
I35
I19
I-3
tp317
I0
tp318
F0.0
s((I23
I36
I19
I0
tp319
I1
tp320
F0.0
s((I19
I43
I16
I-3
tp321
I0
tp322
I0
s((I30
I14
I19
I3
tp323
I0
tp324
F0.0
s((I32
I23
I25
I0
tp325
I1
tp326
I0
s((I19
I30
I16
I-3
tp327
I1
tp328
F0.0
s((I17
I37
I17
I3
tp329
I1
tp330
F0.0
s((I30
I14
I21
I2
tp331
I1
tp332
F0.0
s((I2
I34
I19
I5
tp333
I0
tp334
I0
s((I29
I33
I22
I-1
tp335
I1
tp336
F0.0
s((I28
I12
I22
I1
tp337
I0
tp338
F0.0
s((I23
I36
I22
I0
tp339
I0
tp340
F0.0
s((I31
I25
I27
I1
tp341
I1
tp342
F0.0
s((I11
I11
I22
I0
tp343
I1
tp344
I0
s((I29
I17
I19
I2
tp345
I1
tp346
I0
s((I20
I32
I16
I-3
tp347
I0
tp348
F0.0
s((I6
I5
I22
I-1
tp349
I0
tp350
F0.0
s((I15
I37
I26
I-2
tp351
I0
tp352
F0.0
s((I28
I18
I26
I5
tp353
I0
tp354
I0
s((I31
I4
I26
I1
tp355
I0
tp356
I0
s((I32
I29
I17
I-3
tp357
I1
tp358
F0.0
s((I32
I27
I27
I-1
tp359
I1
tp360
I0
s((I25
I19
I24
I0
tp361
I0
tp362
F0.0
s((I19
I37
I25
I0
tp363
I0
tp364
I0
s((I27
I9
I21
I-3
tp365
I1
tp366
F0.0
s((I18
I40
I26
I-3
tp367
I1
tp368
F0.0
s((I22
I40
I26
I-3
tp369
I0
tp370
I0
s((I31
I6
I26
I-2
tp371
I0
tp372
F0.0
s((I18
I44
I22
I-3
tp373
I1
tp374
I0
s((I27
I3
I27
I2
tp375
I1
tp376
F0.0
s((I24
I16
I27
I-3
tp377
I0
tp378
I0
s((I30
I4
I19
I2
tp379
I1
tp380
I0
s((I32
I29
I26
I-3
tp381
I1
tp382
F0.0
s((I27
I11
I19
I-3
tp383
I1
tp384
F0.0
s((I19
I43
I22
I-3
tp385
I1
tp386
F0.0
s((I23
I27
I21
I-4
tp387
I1
tp388
I0
s((I13
I3
I22
I0
tp389
I1
tp390
F0.0
s((I12
I27
I18
I-3
tp391
I0
tp392
I0
s((I15
I25
I18
I-4
tp393
I1
tp394
F0.0
s((I12
I11
I21
I5
tp395
I0
tp396
I0
s(g26
I1
tp397
I0
s((I22
I35
I16
I2
tp398
I1
tp399
I0
s((I27
I13
I26
I4
tp400
I1
tp401
I0
s((I5
I3
I22
I2
tp402
I0
tp403
I0
s((I22
I40
I17
I-3
tp404
I0
tp405
F0.0
s((I30
I24
I17
I3
tp406
I0
tp407
I0
s((I27
I36
I19
I-4
tp408
I1
tp409
I0
s((I16
I1
I22
I-3
tp410
I1
tp411
I0
s((I23
I21
I22
I5
tp412
I0
tp413
F0.0
s((I15
I43
I26
I1
tp414
I0
tp415
I0
s((I28
I30
I22
I-3
tp416
I1
tp417
F0.0
s((I26
I35
I17
I0
tp418
I1
tp419
F0.0
s((I15
I46
I19
I-2
tp420
I1
tp421
F0.0
s((I15
I46
I18
I-3
tp422
I1
tp423
F0.0
s((I29
I4
I19
I4
tp424
I0
tp425
I0
s((I2
I34
I23
I5
tp426
I1
tp427
I0
s((I30
I9
I16
I3
tp428
I1
tp429
F0.0
s((I20
I30
I17
I1
tp430
I1
tp431
I0
s(I0
I0
tp432
F0.0
s((I16
I44
I16
I0
tp433
I0
tp434
I0
s((I31
I12
I26
I0
tp435
I0
tp436
F0.0
s((I28
I17
I16
I2
tp437
I1
tp438
F0.0
s((I21
I19
I27
I5
tp439
I1
tp440
F0.0
s((I29
I7
I22
I-3
tp441
I0
tp442
F0.0
s((I25
I35
I16
I-4
tp443
I0
tp444
I0
s((I23
I29
I27
I-3
tp445
I0
tp446
F0.0
s((I19
I15
I18
I-3
tp447
I1
tp448
I0
s((I6
I36
I22
I5
tp449
I0
tp450
I0
s((I22
I28
I16
I-3
tp451
I1
tp452
F0.0
s((I25
I31
I26
I0
tp453
I1
tp454
F0.0
s((I29
I30
I19
I-3
tp455
I1
tp456
I0
s((I16
I34
I21
I2
tp457
I1
tp458
F0.0
s((I28
I24
I19
I2
tp459
I1
tp460
F0.0
s((I13
I7
I18
I5
tp461
I0
tp462
F0.0
s((I25
I12
I19
I5
tp463
I0
tp464
I0
s((I13
I15
I22
I5
tp465
I0
tp466
F0.0
s((I27
I30
I19
I-1
tp467
I1
tp468
F0.0
s((I31
I10
I19
I-3
tp469
I0
tp470
F0.0
s((I18
I44
I19
I-3
tp471
I1
tp472
F0.0
s((I19
I39
I27
I-1
tp473
I1
tp474
F0.0
s((I32
I8
I19
I-1
tp475
I1
tp476
F0.0
s((I18
I18
I22
I5
tp477
I0
tp478
F0.0
s((I8
I16
I22
I5
tp479
I1
tp480
F0.0
s((I29
I14
I24
I3
tp481
I1
tp482
F0.0
s((I31
I24
I26
I3
tp483
I1
tp484
F0.0
s((I4
I7
I22
I-3
tp485
I0
tp486
F0.0
s((I25
I33
I22
I0
tp487
I0
tp488
I0
s((I28
I29
I25
I0
tp489
I1
tp490
F0.0
s((I26
I13
I27
I-3
tp491
I1
tp492
I0
s((I22
I36
I27
I-3
tp493
I1
tp494
F0.0
s((I29
I20
I26
I-3
tp495
I0
tp496
I0
s((I18
I41
I27
I-3
tp497
I0
tp498
F0.0
s((I28
I10
I22
I5
tp499
I0
tp500
I0
s((I29
I23
I19
I2
tp501
I1
tp502
F0.0
s((I27
I21
I21
I-4
tp503
I0
tp504
I0
s((I29
I32
I17
I-3
tp505
I0
tp506
I0
s((I32
I13
I17
I-1
tp507
I1
tp508
I0
s((I25
I37
I26
I-3
tp509
I1
tp510
F0.0
s((I8
I28
I26
I5
tp511
I0
tp512
F0.0
s((I16
I44
I27
I0
tp513
I1
tp514
F0.0
s((I16
I0
I22
I-3
tp515
I1
tp516
F0.0
s((I20
I12
I25
I3
tp517
I0
tp518
F0.0
s((I24
I24
I17
I1
tp519
I1
tp520
I0
s((I25
I19
I22
I5
tp521
I1
tp522
F0.0
s((I31
I6
I19
I-3
tp523
I1
tp524
I0
s((I12
I35
I18
I5
tp525
I0
tp526
F0.0
s((I19
I40
I27
I0
tp527
I1
tp528
I0
s((I20
I9
I26
I5
tp529
I0
tp530
F0.0
s((I29
I16
I19
I3
tp531
I0
tp532
F0.0
s((I32
I28
I24
I-1
tp533
I0
tp534
F0.0
s((I22
I14
I17
I1
tp535
I1
tp536
F0.0
s((I27
I22
I16
I5
tp537
I0
tp538
F0.0
s((I21
I29
I21
I-3
tp539
I1
tp540
F0.0
s((I31
I30
I24
I-3
tp541
I1
tp542
I0
s((I27
I20
I27
I0
tp543
I1
tp544
F0.0
s((I31
I30
I16
I-3
tp545
I0
tp546
I0
s((I18
I2
I26
I-1
tp547
I1
tp548
I0
s((I23
I32
I25
I0
tp549
I0
tp550
F0.0
s((I24
I34
I26
I-3
tp551
I0
tp552
F0.0
s((I28
I31
I17
I-3
tp553
I0
tp554
F0.0
s((I26
I22
I22
I5
tp555
I0
tp556
I0
s((I28
I28
I26
I-2
tp557
I0
tp558
I0
s(g122
I1
tp559
I0
s((I10
I39
I17
I5
tp560
I0
tp561
F0.0
s(g389
I0
tp562
I0
s((I30
I9
I19
I-3
tp563
I1
tp564
I0
s((I15
I42
I22
I2
tp565
I1
tp566
I0
s(g195
I1
tp567
F0.0
s((I18
I14
I23
I-4
tp568
I0
tp569
F70.0
s((I30
I19
I21
I-3
tp570
I0
tp571
F0.0
s((I21
I19
I17
I-4
tp572
I1
tp573
I0
s((I28
I17
I16
I-3
tp574
I1
tp575
I0
s((I6
I3
I18
I5
tp576
I1
tp577
F0.0
s(g539
I0
tp578
I0
s((I24
I29
I24
I-3
tp579
I1
tp580
I0
s((I26
I17
I17
I-3
tp581
I1
tp582
F0.0
s((I22
I38
I16
I-3
tp583
I0
tp584
F0.0
s((I28
I35
I19
I-2
tp585
I0
tp586
I0
s((I29
I23
I24
I4
tp587
I0
tp588
I0
s((I27
I15
I19
I4
tp589
I0
tp590
I0
s((I24
I16
I24
I3
tp591
I1
tp592
F0.0
s((I8
I34
I22
I-3
tp593
I0
tp594
I0
s((I25
I23
I21
I0
tp595
I0
tp596
I0
s(g238
I0
tp597
I0
s((I22
I5
I27
I5
tp598
I0
tp599
F0.0
s((I31
I25
I26
I-3
tp600
I0
tp601
F0.0
s((I19
I41
I19
I-3
tp602
I1
tp603
F0.0
s((I23
I36
I17
I1
tp604
I1
tp605
F0.0
s((I27
I9
I19
I-3
tp606
I0
tp607
I0
s((I20
I13
I19
I-3
tp608
I1
tp609
F0.0
s((I11
I39
I22
I5
tp610
I0
tp611
F0.0
s((I29
I11
I24
I-3
tp612
I1
tp613
F0.0
s((I31
I14
I16
I-3
tp614
I1
tp615
I0
s((I16
I6
I26
I5
tp616
I0
tp617
I0
s((I22
I39
I22
I-3
tp618
I0
tp619
F0.0
s((I31
I17
I21
I-1
tp620
I0
tp621
F0.0
s(g236
I1
tp622
F0.0
s((I27
I24
I22
I2
tp623
I1
tp624
I0
s((I24
I26
I27
I0
tp625
I1
tp626
F0.0
s((I31
I19
I19
I0
tp627
I1
tp628
I0
s((I15
I38
I21
I-3
tp629
I1
tp630
I0
s((I19
I7
I25
I-3
tp631
I1
tp632
I0
s((I12
I40
I17
I4
tp633
I1
tp634
F0.0
s((I32
I27
I16
I0
tp635
I1
tp636
I0
s(g565
I0
tp637
F0.0
s((I29
I6
I17
I0
tp638
I0
tp639
F0.0
s((I12
I30
I22
I-2
tp640
I0
tp641
F0.0
s((I19
I13
I17
I5
tp642
I0
tp643
I0
s((I29
I14
I17
I-3
tp644
I0
tp645
F0.0
s((I15
I43
I25
I1
tp646
I0
tp647
I0
s((I15
I21
I22
I0
tp648
I1
tp649
I0
s((I20
I34
I17
I-2
tp650
I0
tp651
F0.0
s((I18
I43
I24
I-3
tp652
I1
tp653
I0
s((I21
I38
I22
I-3
tp654
I1
tp655
F0.0
s((I20
I12
I23
I-2
tp656
I0
tp657
F70.0
s((I23
I23
I19
I5
tp658
I0
tp659
F0.0
s((I12
I40
I16
I4
tp660
I0
tp661
I0
s((I16
I45
I27
I-2
tp662
I1
tp663
F0.0
s((I22
I40
I16
I-3
tp664
I0
tp665
F0.0
s((I24
I16
I17
I5
tp666
I0
tp667
F0.0
s(g295
I1
tp668
F0.0
s((I15
I46
I21
I-2
tp669
I1
tp670
I0
s((I27
I4
I17
I3
tp671
I1
tp672
I0
s((I13
I40
I26
I4
tp673
I0
tp674
I0
s((I13
I19
I22
I3
tp675
I1
tp676
I0
s((I30
I24
I22
I3
tp677
I0
tp678
I0
s((I16
I45
I19
I-2
tp679
I1
tp680
F0.0
s((I16
I34
I26
I1
tp681
I1
tp682
I0
s((I19
I5
I25
I0
tp683
I1
tp684
F0.0
s((I24
I23
I21
I-3
tp685
I0
tp686
F0.0
s((I31
I4
I21
I-1
tp687
I0
tp688
F0.0
s((I19
I20
I18
I0
tp689
I0
tp690
I0
s((I12
I34
I21
I5
tp691
I0
tp692
I0
s((I25
I25
I16
I-3
tp693
I0
tp694
I0
s((I16
I45
I21
I-2
tp695
I1
tp696
F0.0
s((I30
I6
I21
I-3
tp697
I1
tp698
F0.0
s((I15
I43
I17
I1
tp699
I1
tp700
I0
s((I15
I46
I17
I-2
tp701
I0
tp702
I0
s((I17
I35
I17
I-3
tp703
I1
tp704
F0.0
s((I12
I27
I22
I1
tp705
I0
tp706
I0
s((I18
I23
I25
I-3
tp707
I0
tp708
F0.0
s((I7
I37
I19
I5
tp709
I1
tp710
I0
s((I24
I11
I26
I5
tp711
I0
tp712
F0.0
s((I31
I20
I19
I-2
tp713
I0
tp714
I0
s((I26
I8
I27
I2
tp715
I0
tp716
F0.0
s((I16
I45
I23
I-2
tp717
I0
tp718
F0.0
s((I27
I25
I19
I5
tp719
I1
tp720
I0
s((I15
I43
I16
I1
tp721
I0
tp722
F0.0
s((I15
I43
I19
I1
tp723
I0
tp724
F0.0
s((I26
I11
I21
I5
tp725
I1
tp726
F0.0
s((I23
I5
I18
I-1
tp727
I1
tp728
I0
s((I32
I17
I25
I-2
tp729
I0
tp730
F0.0
s((I22
I24
I24
I3
tp731
I0
tp732
I0
s((I33
I28
I22
I-1
tp733
I0
tp734
F0.0
s((I28
I33
I16
I-3
tp735
I1
tp736
F0.0
s((I23
I10
I19
I-3
tp737
I0
tp738
F0.0
s((I26
I21
I27
I5
tp739
I1
tp740
I0
s((I21
I41
I19
I-3
tp741
I1
tp742
F0.0
s((I26
I8
I17
I5
tp743
I1
tp744
F0.0
s((I29
I19
I17
I4
tp745
I0
tp746
F0.0
s((I10
I5
I18
I5
tp747
I0
tp748
F0.0
s((I31
I28
I19
I2
tp749
I1
tp750
F0.0
s((I24
I7
I19
I0
tp751
I0
tp752
I0
s((I30
I18
I27
I-3
tp753
I1
tp754
F0.0
s((I14
I37
I16
I-3
tp755
I1
tp756
F0.0
s((I25
I13
I19
I5
tp757
I1
tp758
F0.0
s((I30
I20
I19
I-1
tp759
I1
tp760
F0.0
s(g618
I1
tp761
I0
s((I33
I27
I26
I0
tp762
I1
tp763
I0
s((I13
I31
I26
I4
tp764
I0
tp765
F0.0
s((I24
I26
I21
I-2
tp766
I1
tp767
I0
s((I25
I27
I17
I-1
tp768
I0
tp769
F0.0
s((I22
I35
I25
I-3
tp770
I0
tp771
F0.0
s((I22
I15
I25
I0
tp772
I1
tp773
I0
s((I22
I20
I16
I5
tp774
I1
tp775
I0
s(g270
I0
tp776
I0
s((I28
I32
I27
I-3
tp777
I1
tp778
F0.0
s((I30
I17
I26
I-1
tp779
I1
tp780
F0.0
s((I22
I8
I23
I-4
tp781
I1
tp782
I0
s((I22
I39
I24
I-1
tp783
I1
tp784
F0.0
s(g250
I0
tp785
I0
s(g116
I0
tp786
I0
s((I14
I37
I17
I-3
tp787
I0
tp788
I0
s((I19
I41
I22
I-3
tp789
I1
tp790
F0.0
s((I28
I7
I27
I-3
tp791
I1
tp792
I0
s((I22
I16
I19
I-1
tp793
I0
tp794
F0.0
s((I18
I22
I18
I-3
tp795
I1
tp796
I0
s((I18
I16
I23
I5
tp797
I0
tp798
I0
s((I19
I43
I18
I-2
tp799
I1
tp800
I0
s((I24
I38
I19
I-3
tp801
I0
tp802
I0
s((I19
I43
I21
I-3
tp803
I0
tp804
F0.0
s(g176
I1
tp805
F0.0
s((I22
I37
I19
I-3
tp806
I0
tp807
F0.0
s((I24
I5
I23
I-1
tp808
I0
tp809
I0
s((I14
I4
I22
I5
tp810
I0
tp811
I0
s((I15
I46
I22
I-2
tp812
I0
tp813
I0
s((I22
I17
I18
I-3
tp814
I0
tp815
F0.0
s((I30
I15
I26
I-3
tp816
I1
tp817
F0.0
s((I21
I26
I21
I-3
tp818
I1
tp819
F0.0
s((I28
I28
I22
I-2
tp820
I0
tp821
F0.0
s((I21
I24
I16
I-3
tp822
I1
tp823
I0
s((I15
I46
I19
I-3
tp824
I0
tp825
F0.0
s((I29
I3
I17
I0
tp826
I0
tp827
I0
s((I23
I21
I16
I0
tp828
I0
tp829
I0
s((I15
I8
I16
I0
tp830
I0
tp831
F0.0
s((I28
I35
I26
I-3
tp832
I0
tp833
F0.0
s((I16
I45
I22
I-1
tp834
I1
tp835
I0
s((I20
I32
I27
I0
tp836
I1
tp837
F0.0
s(g4
I0
tp838
F0.0
s(g162
I1
tp839
F0.0
s(g10
I0
tp840
I0
s((I17
I10
I25
I5
tp841
I1
tp842
F0.0
s((I31
I17
I22
I-3
tp843
I0
tp844
F0.0
s((I17
I4
I26
I-3
tp845
I0
tp846
F0.0
s(g14
I0
tp847
F0.0
s((I31
I11
I17
I2
tp848
I1
tp849
F0.0
s(g18
I0
tp850
F0.0
s(g20
I0
tp851
I0
s((I20
I21
I17
I5
tp852
I1
tp853
F0.0
s(g22
I1
tp854
F0.0
s((I24
I9
I22
I4
tp855
I1
tp856
I0
s((I22
I38
I19
I-3
tp857
I0
tp858
F0.0
s((I31
I20
I24
I-3
tp859
I0
tp860
I0
s((I26
I21
I17
I5
tp861
I0
tp862
I0
s((I29
I32
I26
I0
tp863
I1
tp864
F0.0
s(g28
I0
tp865
F0.0
s(g30
I1
tp866
F0.0
s(g638
I1
tp867
I0
s((I20
I10
I23
I1
tp868
I0
tp869
I0
s(g321
I1
tp870
F0.0
s((I25
I34
I17
I-3
tp871
I1
tp872
F0.0
s((I10
I13
I22
I-3
tp873
I1
tp874
I0
s(g32
I0
tp875
F0.0
s(g640
I1
tp876
I0
s((I29
I5
I17
I-3
tp877
I0
tp878
F0.0
s(g34
I0
tp879
I0
s(g36
I0
tp880
I0
s((I23
I37
I16
I-2
tp881
I0
tp882
I0
s(g40
I0
tp883
I0
s((I17
I15
I19
I0
tp884
I1
tp885
F70.0
s(g44
I0
tp886
I0
s((I23
I23
I17
I3
tp887
I0
tp888
F0.0
s((I23
I20
I17
I-3
tp889
I0
tp890
I0
s(g54
I0
tp891
I0
s(g60
I1
tp892
I0
s((I29
I20
I25
I3
tp893
I1
tp894
F0.0
s((I24
I31
I22
I-3
tp895
I0
tp896
I0
s(g66
I0
tp897
I0
s(g68
I0
tp898
I0
s(g74
I0
tp899
I0
s((I31
I32
I19
I-3
tp900
I1
tp901
I0
s(g78
I0
tp902
F0.0
s(g82
I0
tp903
F0.0
s(g743
I0
tp904
I0
s(g84
I0
tp905
I0
s(g662
I0
tp906
I0
s(g16
I0
tp907
F0.0
s((I16
I26
I25
I5
tp908
I0
tp909
I0
s(g88
I0
tp910
I0
s((I17
I36
I21
I-1
tp911
I0
tp912
F0.0
s(g92
I0
tp913
F0.0
s(g741
I0
tp914
I0
s(g96
I1
tp915
F0.0
s((I7
I32
I18
I5
tp916
I0
tp917
I0
s((I16
I44
I22
I0
tp918
I0
tp919
I0
s(g100
I1
tp920
I0
s(g106
I0
tp921
F0.0
s(g108
I0
tp922
F0.0
s((I32
I25
I22
I0
tp923
I1
tp924
F0.0
s(g112
I0
tp925
F0.0
s((I29
I34
I19
I-5
tp926
I1
tp927
I0
s(g114
I1
tp928
I0
s((I12
I14
I16
I5
tp929
I1
tp930
F0.0
s((I32
I25
I17
I-2
tp931
I0
tp932
I0
s(g38
I0
tp933
F0.0
s((I25
I9
I25
I5
tp934
I0
tp935
I0
s((I29
I27
I19
I0
tp936
I0
tp937
I0
s((I31
I16
I27
I-1
tp938
I0
tp939
F0.0
s(g124
I0
tp940
F0.0
s(g128
I1
tp941
F0.0
s((I16
I45
I16
I-2
tp942
I1
tp943
F0.0
s(g132
I1
tp944
I0
s(g134
I0
tp945
I0
s((I21
I37
I26
I-3
tp946
I1
tp947
F0.0
s(g144
I1
tp948
I0
s(g148
I0
tp949
I0
s((I16
I45
I17
I-1
tp950
I0
tp951
F0.0
s((I20
I29
I25
I3
tp952
I1
tp953
I0
s(g152
I1
tp954
I0
s((I32
I9
I24
I0
tp955
I1
tp956
I0
s((I32
I6
I16
I-3
tp957
I0
tp958
I0
s(g646
I1
tp959
F0.0
s((I30
I25
I19
I0
tp960
I0
tp961
F0.0
s(g156
I0
tp962
F0.0
s(g602
I0
tp963
I0
s(g160
I0
tp964
I0
s((I30
I32
I22
I-5
tp965
I1
tp966
I0
s(g164
I1
tp967
I0
s((I31
I5
I22
I-1
tp968
I0
tp969
F0.0
s((I20
I40
I24
I0
tp970
I0
tp971
I0
s(g166
I0
tp972
F0.0
s((I12
I5
I16
I3
tp973
I1
tp974
I0
s((I28
I15
I22
I-2
tp975
I1
tp976
I0
s((I8
I31
I17
I0
tp977
I0
tp978
F0.0
s(g178
I0
tp979
F0.0
s((I20
I33
I17
I-3
tp980
I1
tp981
I0
s((I25
I20
I21
I1
tp982
I1
tp983
I0
s((I23
I14
I18
I0
tp984
I1
tp985
I0
s(g188
I1
tp986
F0.0
s(g190
I1
tp987
I0
s((I26
I29
I22
I-4
tp988
I1
tp989
I0
s(g323
I1
tp990
I0
s(g197
I1
tp991
I0
s((I22
I37
I24
I-3
tp992
I0
tp993
F0.0
s(g201
I1
tp994
I0
s((I25
I19
I16
I-3
tp995
I1
tp996
F0.0
s(g203
I1
tp997
I0
s((I31
I12
I24
I-3
tp998
I0
tp999
F0.0
s(g213
I1
tp1000
I0
s((I30
I13
I27
I2
tp1001
I0
tp1002
I0
s(g713
I1
tp1003
F0.0
s((I26
I32
I19
I0
tp1004
I1
tp1005
F0.0
s(g218
I1
tp1006
I0
s((I19
I40
I18
I1
tp1007
I0
tp1008
F0.0
s((I29
I22
I19
I-3
tp1009
I1
tp1010
I0
s((I19
I43
I17
I-3
tp1011
I0
tp1012
F0.0
s((I19
I20
I19
I5
tp1013
I1
tp1014
F0.0
s((I21
I13
I19
I2
tp1015
I1
tp1016
F0.0
s((I30
I2
I19
I-3
tp1017
I0
tp1018
I0
s(g232
I0
tp1019
I0
s((I31
I26
I25
I-3
tp1020
I1
tp1021
I0
s(g234
I0
tp1022
I0
s(g614
I0
tp1023
F0.0
s(g24
I0
tp1024
I0
s((I16
I37
I18
I4
tp1025
I1
tp1026
I0
s(g926
I0
tp1027
F0.0
s(g240
I1
tp1028
F0.0
s(g244
I0
tp1029
F0.0
s((I25
I34
I27
I-3
tp1030
I1
tp1031
F0.0
s(g248
I1
tp1032
F0.0
s(g511
I1
tp1033
I0
s((I26
I34
I24
I-1
tp1034
I0
tp1035
I0
s(g266
I1
tp1036
F0.0
s((I25
I36
I24
I-3
tp1037
I0
tp1038
F0.0
s(g268
I1
tp1039
F0.0
s((I21
I32
I24
I3
tp1040
I1
tp1041
F0.0
s(g272
I1
tp1042
I0
s(g355
I1
tp1043
F0.0
s((I26
I13
I24
I-3
tp1044
I0
tp1045
I0
s(g46
I1
tp1046
I0
s((I30
I25
I16
I3
tp1047
I0
tp1048
I0
s(g279
I0
tp1049
I0
s((I15
I46
I26
I-2
tp1050
I1
tp1051
I0
s(g285
I0
tp1052
F0.0
s((I19
I34
I27
I-3
tp1053
I1
tp1054
I0
s(g58
I0
tp1055
F0.0
s(g291
I1
tp1056
F0.0
s(g6
I1
tp1057
I0
s(g12
I0
tp1058
F0.0
s(g307
I1
tp1059
I0
s(g311
I1
tp1060
I0
s(g313
I0
tp1061
I0
s(g317
I1
tp1062
I0
s((I20
I4
I17
I3
tp1063
I0
tp1064
F0.0
s(g90
I1
tp1065
I0
s(g94
I0
tp1066
F0.0
s(g331
I0
tp1067
I0
s(g333
I1
tp1068
F0.0
s(g345
I0
tp1069
F0.0
s(g351
I1
tp1070
I0
s(g293
I1
tp1071
I0
s(g834
I0
tp1072
F0.0
s(g48
I1
tp1073
I0
s(g357
I0
tp1074
I0
s(g52
I1
tp1075
I0
s(g361
I1
tp1076
I0
s(g56
I1
tp1077
I0
s(g62
I0
tp1078
F0.0
s(g367
I0
tp1079
I0
s(g64
I0
tp1080
I0
s(g1004
I0
tp1081
I0
s(g70
I1
tp1082
I0
s(g72
I0
tp1083
F0.0
s(g449
I1
tp1084
F0.0
s(g146
I0
tp1085
I0
s(g80
I0
tp1086
I0
s(g379
I0
tp1087
F0.0
s(g387
I0
tp1088
F0.0
s(g209
I0
tp1089
F0.0
s(g391
I1
tp1090
F0.0
s(g98
I1
tp1091
I0
s(g709
I0
tp1092
F0.0
s(g398
I0
tp1093
F0.0
s(g102
I0
tp1094
I0
s(g104
I1
tp1095
F0.0
s(g402
I1
tp1096
F0.0
s(g404
I1
tp1097
F0.0
s(g406
I1
tp1098
F0.0
s(g138
I0
tp1099
I0
s(g110
I1
tp1100
F0.0
s(g416
I0
tp1101
I0
s(g118
I1
tp1102
F0.0
s(g424
I1
tp1103
F0.0
s(g126
I1
tp1104
I0
s(g359
I0
tp1105
F0.0
s(g501
I0
tp1106
I0
s(g433
I1
tp1107
F0.0
s(g130
I0
tp1108
F0.0
s(g365
I0
tp1109
I0
s(g437
I0
tp1110
I0
s(g136
I0
tp1111
I0
s(g369
I1
tp1112
F0.0
s(g443
I1
tp1113
F0.0
s(g140
I0
tp1114
I0
s(g447
I0
tp1115
F70.0
s(g451
I0
tp1116
I0
s(g142
I1
tp1117
I0
s(g455
I0
tp1118
F0.0
s(g150
I0
tp1119
F0.0
s(g459
I0
tp1120
I0
s(g222
I1
tp1121
F0.0
s(g473
I0
tp1122
I0
s(g957
I1
tp1123
F0.0
s(g479
I0
tp1124
I0
s(g224
I1
tp1125
F0.0
s(g485
I1
tp1126
I0
s(g168
I1
tp1127
F0.0
s(g170
I0
tp1128
F0.0
s(g385
I0
tp1129
I0
s(g487
I1
tp1130
F0.0
s(g174
I1
tp1131
I0
s(g180
I1
tp1132
I0
s(g182
I0
tp1133
F0.0
s(g412
I1
tp1134
I0
s(g495
I1
tp1135
F0.0
s(g184
I1
tp1136
F0.0
s(g186
I0
tp1137
F0.0
s((I19
I43
I19
I-3
tp1138
I1
tp1139
I0
s(g193
I1
tp1140
F0.0
s((I16
I45
I17
I-2
tp1141
I0
tp1142
F0.0
s(g509
I0
tp1143
I0
s(g199
I1
tp1144
F0.0
s(g513
I0
tp1145
I0
s(g205
I0
tp1146
F0.0
s(g207
I0
tp1147
F0.0
s(g521
I0
tp1148
I0
s(g211
I1
tp1149
F0.0
s(g523
I0
tp1150
F0.0
s(g525
I1
tp1151
I0
s(g529
I1
tp1152
I0
s(g216
I1
tp1153
F0.0
s(g533
I1
tp1154
I0
s(g220
I0
tp1155
I0
s(g537
I1
tp1156
I0
s(g297
I1
tp1157
F0.0
s((I28
I2
I19
I4
tp1158
I0
tp1159
F0.0
s(g545
I1
tp1160
F0.0
s(g228
I0
tp1161
I0
s(g549
I1
tp1162
I0
s(g230
I1
tp1163
I0
s(g557
I1
tp1164
F0.0
s(g242
I1
tp1165
I0
s(g563
I0
tp1166
F0.0
s(g246
I1
tp1167
F0.0
s((I26
I10
I27
I5
tp1168
I0
tp1169
I0
s(g254
I0
tp1170
I0
s(g572
I0
tp1171
F0.0
s(g256
I1
tp1172
I0
s(g258
I0
tp1173
F0.0
s((I9
I29
I18
I-3
tp1174
I0
tp1175
I0
s(g260
I1
tp1176
I0
s(g581
I0
tp1177
I0
s(g264
I1
tp1178
F0.0
s(g585
I1
tp1179
F0.0
s(g587
I1
tp1180
F0.0
s(g591
I0
tp1181
I0
s(g1158
I1
tp1182
I0
s(g277
I0
tp1183
F0.0
s(g1009
I0
tp1184
F0.0
s(g281
I0
tp1185
F0.0
s(g604
I0
tp1186
I0
s(g283
I1
tp1187
F0.0
s(g606
I1
tp1188
F0.0
s(g289
I0
tp1189
F0.0
s(g608
I0
tp1190
I0
s(g612
I0
tp1191
I0
s(g1174
I1
tp1192
F0.0
s(g373
I0
tp1193
F0.0
s(g623
I0
tp1194
F0.0
s(g299
I0
tp1195
I0
s(g375
I0
tp1196
I0
s(g301
I0
tp1197
I0
s(g625
I0
tp1198
I0
s(g377
I1
tp1199
F0.0
s(g305
I0
tp1200
F0.0
s(g627
I0
tp1201
F0.0
s(g309
I0
tp1202
F0.0
s(g629
I0
tp1203
F0.0
s(g633
I0
tp1204
I0
s(g315
I1
tp1205
F0.0
s(g635
I0
tp1206
F0.0
s((I27
I4
I19
I-3
tp1207
I0
tp1208
I0
s(g861
I1
tp1209
F0.0
s(g560
I1
tp1210
I0
s(g325
I0
tp1211
F0.0
s(g642
I1
tp1212
F0.0
s(g329
I0
tp1213
I0
s((I17
I37
I21
I3
tp1214
I0
tp1215
F0.0
s(g335
I0
tp1216
I0
s(g574
I0
tp1217
F0.0
s(g337
I1
tp1218
I0
s(g341
I0
tp1219
I0
s(g339
I1
tp1220
I0
s(g658
I1
tp1221
I0
s(g343
I0
tp1222
F0.0
s(g347
I1
tp1223
I0
s(g349
I1
tp1224
I0
s(g666
I1
tp1225
I0
s(g353
I1
tp1226
F0.0
s(g671
I0
tp1227
F0.0
s(g675
I0
tp1228
F0.0
s(g363
I1
tp1229
F0.0
s(g683
I0
tp1230
I0
s(g287
I1
tp1231
I0
s(g687
I1
tp1232
I0
s(g445
I1
tp1233
I0
s(g1007
I1
tp1234
I0
s(g381
I0
tp1235
I0
s(g705
I1
tp1236
F0.0
s(g383
I0
tp1237
I0
s(g717
I1
tp1238
I0
s(g393
I0
tp1239
I0
s(g723
I1
tp1240
I0
s(g395
I1
tp1241
F0.0
s(g725
I0
tp1242
I0
s(g729
I1
tp1243
I0
s(g400
I0
tp1244
F0.0
s(g408
I0
tp1245
F0.0
s(g739
I0
tp1246
F0.0
s(g410
I0
tp1247
F0.0
s(g491
I0
tp1248
F0.0
s(g547
I0
tp1249
F0.0
s(g414
I1
tp1250
F0.0
s(g418
I0
tp1251
I0
s(g420
I0
tp1252
I0
s(g751
I1
tp1253
F0.0
s(g422
I0
tp1254
I0
s(g426
I0
tp1255
F0.0
s((I20
I12
I18
I-1
tp1256
I1
tp1257
I0
s(g428
I0
tp1258
I0
s(g430
I0
tp1259
F0.0
s(g759
I0
tp1260
I0
s(g515
I0
tp1261
I0
s(g435
I1
tp1262
I0
s(g439
I0
tp1263
I0
s(g517
I1
tp1264
I0
s(g441
I1
tp1265
I0
s(g764
I1
tp1266
I0
s(g757
I0
tp1267
I0
s(g766
I0
tp1268
F0.0
s(g453
I0
tp1269
I0
s(g774
I0
tp1270
F0.0
s(g461
I1
tp1271
I0
s(g463
I1
tp1272
F0.0
s(g465
I1
tp1273
I0
s(g467
I0
tp1274
I0
s(g779
I0
tp1275
I0
s(g781
I0
tp1276
F70.0
s(g469
I1
tp1277
I0
s(g783
I0
tp1278
I0
s(g471
I0
tp1279
I0
s(g715
I1
tp1280
I0
s(g477
I1
tp1281
I0
s(g481
I0
tp1282
I0
s(g1168
I1
tp1283
F0.0
s(g483
I0
tp1284
I0
s(g727
I0
tp1285
F70.0
s(g747
I1
tp1286
I0
s(g791
I0
tp1287
F0.0
s(g795
I0
tp1288
F0.0
s(g797
I1
tp1289
F0.0
s(g327
I0
tp1290
I0
s(g489
I0
tp1291
I0
s((I26
I4
I24
I5
tp1292
I1
tp1293
I0
s((I30
I15
I26
I1
tp1294
I0
tp1295
I0
s((I12
I40
I19
I4
tp1296
I0
tp1297
F0.0
s(g493
I0
tp1298
I0
s(g745
I1
tp1299
I0
s(g497
I1
tp1300
I0
s(g801
I1
tp1301
F0.0
s(g803
I1
tp1302
I0
s(g499
I1
tp1303
F0.0
s(g503
I1
tp1304
F0.0
s(g808
I1
tp1305
F70.0
s(g505
I1
tp1306
F0.0
s(g507
I0
tp1307
F0.0
s(g814
I1
tp1308
I0
s(g820
I1
tp1309
I0
s(g519
I0
tp1310
F0.0
s(g857
I1
tp1311
I0
s(g527
I0
tp1312
F0.0
s(g828
I1
tp1313
F0.0
s(g531
I1
tp1314
I0
s(g42
I1
tp1315
F0.0
s(g1256
I0
tp1316
F70.0
s(g832
I1
tp1317
I0
s(g535
I0
tp1318
I0
s(g1040
I0
tp1319
I0
s(g806
I1
tp1320
F0.0
s(g836
I0
tp1321
I0
s(g1063
I1
tp1322
I0
s(g777
I0
tp1323
I0
s(g1015
I0
tp1324
I0
s(g541
I0
tp1325
F0.0
s(g841
I0
tp1326
I0
s(g543
I0
tp1327
I0
s(g845
I1
tp1328
I0
s(g848
I0
tp1329
I0
s(g551
I1
tp1330
I0
s(g553
I1
tp1331
I0
s(g852
I0
tp1332
I0
s(g855
I0
tp1333
F0.0
s(g555
I1
tp1334
F0.0
s(g859
I1
tp1335
F0.0
s(g475
I0
tp1336
I0
s(g863
I0
tp1337
I0
s(g568
I1
tp1338
I0
s(g950
I1
tp1339
I0
s(g570
I1
tp1340
I0
s(g868
I1
tp1341
F70.0
s(g576
I0
tp1342
I0
s(g252
I1
tp1343
I0
s(g579
I0
tp1344
F0.0
s(g871
I0
tp1345
I0
s(g583
I1
tp1346
I0
s(g660
I1
tp1347
F0.0
s(g877
I1
tp1348
I0
s(g593
I1
tp1349
F0.0
s(g881
I1
tp1350
F0.0
s(g595
I1
tp1351
F0.0
s(g884
I0
tp1352
I0
s(g598
I1
tp1353
I0
s(g887
I1
tp1354
I0
s(g600
I1
tp1355
I0
s(g86
I1
tp1356
F0.0
s(g826
I1
tp1357
F0.0
s(g681
I0
tp1358
F0.0
s(g893
I0
tp1359
I0
s(g610
I1
tp1360
I0
s(g895
I1
tp1361
F0.0
s(g1296
I1
tp1362
I0
s(g616
I1
tp1363
F0.0
s(g691
I1
tp1364
F0.0
s(g620
I1
tp1365
I0
s(g1138
I0
tp1366
F0.0
s(g900
I0
tp1367
F0.0
s(g1294
I1
tp1368
F0.0
s(g977
I1
tp1369
I0
s(g843
I1
tp1370
I0
s(g701
I1
tp1371
F0.0
s(g908
I1
tp1372
F0.0
s(g631
I0
tp1373
F0.0
s(g911
I1
tp1374
I0
s(g711
I1
tp1375
I0
s(g1292
I0
tp1376
F0.0
s(g916
I1
tp1377
F0.0
s(g644
I1
tp1378
I0
s(g918
I1
tp1379
F0.0
s(g648
I0
tp1380
F0.0
s(g1207
I1
tp1381
F0.0
s(g650
I1
tp1382
I0
s(g652
I0
tp1383
F0.0
s(g654
I0
tp1384
I0
s(g873
I0
tp1385
F0.0
s(g656
I1
tp1386
I0
s(g923
I0
tp1387
I0
s(g1141
I1
tp1388
F0.0
s(g929
I0
tp1389
I0
s(g931
I1
tp1390
F0.0
s(g789
I0
tp1391
I0
s(g664
I1
tp1392
I0
s(g934
I1
tp1393
F0.0
s(g120
I1
tp1394
F0.0
s(g669
I0
tp1395
F0.0
s(g938
I1
tp1396
I0
s(g677
I1
tp1397
F0.0
s(g889
I1
tp1398
F0.0
s(g942
I0
tp1399
F0.0
s(g679
I0
tp1400
F0.0
s(g319
I0
tp1401
I0
s(g685
I1
tp1402
I0
s(g946
I0
tp1403
I0
s(g689
I1
tp1404
F0.0
s(g693
I1
tp1405
F0.0
s(g695
I0
tp1406
I0
s(g697
I0
tp1407
I0
s(g699
I0
tp1408
F0.0
s(g952
I0
tp1409
F0.0
s(g955
I0
tp1410
F0.0
s(g172
I1
tp1411
F0.0
s(g703
I0
tp1412
I0
s(g1214
I1
tp1413
I0
s(g707
I1
tp1414
I0
s(g960
I1
tp1415
I0
s(g965
I0
tp1416
F0.0
s(g226
I0
tp1417
F0.0
s(g719
I0
tp1418
F0.0
s(g968
I1
tp1419
I0
s(g721
I1
tp1420
I0
s(g970
I1
tp1421
F0.0
s(g274
I0
tp1422
I0
s(g731
I1
tp1423
F0.0
s(g975
I0
tp1424
F0.0
s(g733
I1
tp1425
I0
s(g735
I0
tp1426
I0
s(g673
I1
tp1427
F0.0
s(g737
I1
tp1428
I0
s(g371
I1
tp1429
I0
s(g980
I0
tp1430
F0.0
s(g982
I0
tp1431
F0.0
s(g984
I0
tp1432
F0.0
s(g749
I0
tp1433
I0
s(g936
I1
tp1434
F0.0
s(g753
I0
tp1435
I0
s(g988
I0
tp1436
F0.0
s(g755
I0
tp1437
I0
s(g992
I1
tp1438
I0
s(g995
I0
tp1439
I0
s(g818
I0
tp1440
I0
s(g262
I0
tp1441
F0.0
s(g762
I0
tp1442
F0.0
s(g998
I1
tp1443
I0
s(g768
I1
tp1444
I0
s(g1001
I1
tp1445
F0.0
s(g770
I1
tp1446
I0
s(g772
I0
tp1447
F0.0
s(g589
I1
tp1448
F0.0
s(g457
I0
tp1449
I0
s(g1011
I1
tp1450
F0.0
s(g1013
I0
tp1451
I0
s(g1017
I1
tp1452
F0.0
s(g787
I1
tp1453
F0.0
s(g1020
I0
tp1454
F0.0
s(g973
I0
tp1455
F0.0
s(g1025
I0
tp1456
F0.0
s(g793
I1
tp1457
I0
s(g303
I0
tp1458
I0
s(g1030
I0
tp1459
I0
s(g1034
I1
tp1460
F0.0
s(g799
I0
tp1461
F0.0
s(g8
I1
tp1462
F0.0
s(g158
I0
tp1463
I0
s(g1037
I1
tp1464
I0
s(g810
I1
tp1465
F0.0
s(g812
I1
tp1466
F0.0
s(g816
I0
tp1467
I0
s(g1044
I1
tp1468
F0.0
s(g822
I0
tp1469
F0.0
s(g1047
I1
tp1470
F0.0
s(g824
I1
tp1471
I0
s(g1050
I0
tp1472
F0.0
s(g1053
I0
tp1473
F0.0
s(g830
I1
tp1474
I0
s.