ccollections
defaultdict
p0
(c__builtin__
int
p1
tp2
Rp3
((I31
I27
I17
I2
tp4
I0
tp5
I0
s((I20
I41
I17
I-5
tp6
I1
tp7
I0
s((I15
I46
I24
I-2
tp8
I1
tp9
I0
s((I29
I12
I25
I-1
tp10
I1
tp11
F0.0
s((I14
I7
I17
I3
tp12
I1
tp13
I0
s((I21
I15
I23
I4
tp14
I0
tp15
I0
s((I29
I28
I27
I0
tp16
I0
tp17
F0.0
s((I16
I10
I17
I0
tp18
I1
tp19
I0
s((I24
I38
I25
I-3
tp20
I0
tp21
F0.0
s((I20
I14
I24
I-3
tp22
I1
tp23
F0.0
s((I27
I2
I23
I4
tp24
I1
tp25
I0
s((I29
I20
I23
I-4
tp26
I1
tp27
F0.0
s((I28
I33
I25
I-3
tp28
I1
tp29
I0
s((I29
I30
I25
I0
tp30
I0
tp31
I0
s((I15
I46
I25
I-2
tp32
I0
tp33
I0
s((I15
I28
I26
I-3
tp34
I1
tp35
I0
s((I20
I24
I23
I-3
tp36
I0
tp37
I0
s((I31
I22
I20
I0
tp38
I1
tp39
F0.0
s((I31
I31
I17
I-3
tp40
I1
tp41
F0.0
s((I20
I5
I20
I5
tp42
I0
tp43
I0
s((I19
I38
I25
I1
tp44
I0
tp45
I0
s((I13
I31
I26
I3
tp46
I0
tp47
I0
s((I27
I26
I23
I-3
tp48
I1
tp49
I0
s((I17
I35
I23
I4
tp50
I1
tp51
F0.0
s((I27
I21
I23
I2
tp52
I1
tp53
F0.0
s((I25
I36
I17
I-3
tp54
I0
tp55
I0
s((I23
I19
I25
I5
tp56
I1
tp57
F0.0
s((I29
I3
I23
I2
tp58
I0
tp59
F0.0
s((I31
I28
I24
I-3
tp60
I1
tp61
I0
s((I28
I14
I25
I-3
tp62
I1
tp63
I0
s((I19
I37
I23
I1
tp64
I1
tp65
I0
s((I15
I14
I17
I0
tp66
I1
tp67
I0
s((I18
I19
I17
I5
tp68
I1
tp69
I0
s((I16
I13
I25
I5
tp70
I1
tp71
F0.0
s((I16
I44
I23
I0
tp72
I0
tp73
I0
s((I19
I42
I17
I-1
tp74
I1
tp75
F0.0
s((I15
I46
I23
I-3
tp76
I0
tp77
F0.0
s((I23
I15
I26
I-3
tp78
I1
tp79
I0
s(g68
I0
tp80
F0.0
s((I17
I20
I27
I5
tp81
I1
tp82
F0.0
s((I19
I41
I25
I0
tp83
I1
tp84
F0.0
s((I26
I34
I20
I0
tp85
I0
tp86
F0.0
s((I27
I8
I26
I-1
tp87
I0
tp88
I0
s((I30
I4
I25
I3
tp89
I0
tp90
F0.0
s((I29
I4
I23
I-1
tp91
I1
tp92
I0
s((I30
I24
I25
I1
tp93
I0
tp94
I0
s((I18
I41
I23
I-3
tp95
I0
tp96
F0.0
s((I25
I4
I24
I-3
tp97
I0
tp98
I0
s((I18
I33
I23
I-3
tp99
I1
tp100
I0
s((I26
I10
I26
I-3
tp101
I0
tp102
F0.0
s((I26
I31
I23
I0
tp103
I0
tp104
F0.0
s((I22
I2
I25
I0
tp105
I0
tp106
F0.0
s((I26
I11
I23
I-3
tp107
I0
tp108
I0
s((I24
I12
I26
I0
tp109
I0
tp110
I0
s((I20
I40
I25
I-1
tp111
I0
tp112
F0.0
s((I30
I4
I23
I1
tp113
I1
tp114
F0.0
s((I24
I19
I23
I0
tp115
I0
tp116
F0.0
s((I26
I19
I25
I5
tp117
I1
tp118
I0
s((I29
I8
I23
I-3
tp119
I0
tp120
I0
s((I14
I23
I26
I3
tp121
I1
tp122
F0.0
s((I22
I39
I20
I-3
tp123
I1
tp124
F0.0
s((I33
I25
I25
I0
tp125
I0
tp126
I0
s((I23
I23
I25
I1
tp127
I1
tp128
F0.0
s((I24
I19
I24
I5
tp129
I0
tp130
F0.0
s((I19
I38
I23
I-1
tp131
I1
tp132
F0.0
s((I19
I41
I20
I-1
tp133
I1
tp134
F0.0
s((I31
I4
I25
I3
tp135
I1
tp136
I0
s((I16
I13
I17
I-3
tp137
I0
tp138
F0.0
s((I13
I0
I17
I-3
tp139
I0
tp140
F0.0
s((I28
I31
I24
I0
tp141
I1
tp142
F0.0
s((I28
I34
I17
I-3
tp143
I1
tp144
F0.0
s((I25
I36
I20
I-3
tp145
I1
tp146
I0
s((I29
I2
I23
I2
tp147
I0
tp148
I0
s((I12
I40
I26
I4
tp149
I0
tp150
I0
s((I31
I22
I25
I3
tp151
I1
tp152
I0
s((I10
I3
I17
I-4
tp153
I0
tp154
I0
s((I23
I21
I23
I-3
tp155
I1
tp156
I0
s((I24
I8
I24
I0
tp157
I1
tp158
I0
s((I30
I18
I23
I-4
tp159
I1
tp160
F0.0
s((I15
I43
I26
I1
tp161
I0
tp162
F0.0
s((I32
I14
I20
I0
tp163
I0
tp164
F0.0
s((I19
I40
I27
I1
tp165
I0
tp166
I0
s((I22
I38
I25
I-3
tp167
I1
tp168
I0
s(I0
I0
tp169
F0.0
s((I13
I12
I17
I2
tp170
I1
tp171
I0
s((I25
I34
I27
I-2
tp172
I0
tp173
I0
s((I19
I8
I25
I0
tp174
I0
tp175
I0
s((I20
I0
I25
I3
tp176
I0
tp177
F0.0
s((I25
I1
I25
I5
tp178
I1
tp179
F0.0
s((I23
I21
I17
I5
tp180
I0
tp181
F0.0
s((I16
I43
I24
I1
tp182
I1
tp183
F0.0
s((I31
I26
I24
I0
tp184
I1
tp185
I0
s((I25
I28
I23
I2
tp186
I1
tp187
F0.0
s((I28
I10
I20
I4
tp188
I1
tp189
I0
s((I29
I19
I20
I3
tp190
I0
tp191
I0
s((I26
I20
I25
I-2
tp192
I0
tp193
I0
s((I22
I27
I25
I-3
tp194
I0
tp195
F0.0
s((I26
I9
I27
I-3
tp196
I0
tp197
I0
s(g60
I0
tp198
F0.0
s((I32
I9
I25
I-3
tp199
I0
tp200
F0.0
s((I17
I41
I24
I-4
tp201
I0
tp202
I0
s((I30
I11
I23
I3
tp203
I0
tp204
I0
s((I27
I30
I25
I0
tp205
I0
tp206
I0
s((I29
I17
I25
I-3
tp207
I1
tp208
F0.0
s((I20
I39
I24
I-3
tp209
I0
tp210
I0
s((I21
I5
I25
I-3
tp211
I0
tp212
F0.0
s((I16
I44
I25
I-1
tp213
I1
tp214
F0.0
s((I24
I11
I24
I-3
tp215
I0
tp216
F0.0
s((I31
I7
I25
I0
tp217
I0
tp218
I0
s((I16
I20
I26
I-3
tp219
I1
tp220
F0.0
s((I33
I16
I23
I-2
tp221
I0
tp222
F0.0
s((I26
I36
I25
I0
tp223
I0
tp224
I0
s((I15
I46
I27
I-2
tp225
I1
tp226
F0.0
s((I18
I27
I23
I3
tp227
I1
tp228
F0.0
s((I23
I13
I23
I-3
tp229
I1
tp230
F0.0
s((I25
I33
I23
I-3
tp231
I1
tp232
I0
s((I30
I12
I20
I2
tp233
I1
tp234
I0
s((I22
I12
I27
I-3
tp235
I0
tp236
I0
s((I27
I21
I25
I4
tp237
I0
tp238
F0.0
s(g215
I1
tp239
I0
s((I22
I32
I25
I0
tp240
I1
tp241
I0
s((I23
I6
I24
I3
tp242
I1
tp243
F0.0
s((I25
I16
I25
I-3
tp244
I1
tp245
F0.0
s((I29
I31
I27
I-3
tp246
I0
tp247
F0.0
s((I20
I30
I23
I0
tp248
I1
tp249
I0
s((I28
I21
I24
I4
tp250
I0
tp251
F0.0
s((I31
I16
I20
I-3
tp252
I0
tp253
F0.0
s((I21
I16
I25
I5
tp254
I0
tp255
F0.0
s((I20
I18
I26
I-3
tp256
I0
tp257
I0
s((I29
I6
I27
I-3
tp258
I1
tp259
I0
s((I20
I39
I23
I-1
tp260
I1
tp261
I0
s((I19
I16
I24
I5
tp262
I0
tp263
I0
s((I27
I28
I20
I-2
tp264
I0
tp265
I0
s((I28
I6
I23
I-3
tp266
I0
tp267
F0.0
s((I27
I2
I24
I-4
tp268
I0
tp269
I0
s((I19
I43
I27
I-3
tp270
I1
tp271
I0
s((I16
I45
I23
I-2
tp272
I0
tp273
F0.0
s((I30
I25
I20
I-3
tp274
I0
tp275
I0
s((I30
I10
I25
I-3
tp276
I0
tp277
I0
s((I14
I47
I17
I-4
tp278
I0
tp279
F0.0
s(g250
I1
tp280
I0
s((I28
I12
I25
I3
tp281
I0
tp282
I0
s((I18
I44
I17
I-3
tp283
I0
tp284
F0.0
s((I27
I34
I24
I-3
tp285
I0
tp286
F0.0
s((I19
I41
I23
I-3
tp287
I0
tp288
F0.0
s((I27
I9
I23
I5
tp289
I1
tp290
F0.0
s((I31
I24
I24
I2
tp291
I0
tp292
F0.0
s((I17
I43
I23
I-4
tp293
I1
tp294
I0
s((I16
I26
I26
I0
tp295
I1
tp296
I0
s((I31
I28
I25
I-3
tp297
I0
tp298
F0.0
s((I22
I36
I23
I-3
tp299
I0
tp300
I0
s((I15
I34
I26
I1
tp301
I1
tp302
I0
s((I30
I5
I26
I-3
tp303
I0
tp304
I0
s((I23
I36
I25
I0
tp305
I0
tp306
I0
s((I18
I43
I25
I-4
tp307
I1
tp308
I0
s((I28
I24
I17
I5
tp309
I0
tp310
F0.0
s((I21
I3
I20
I-3
tp311
I1
tp312
I0
s((I30
I27
I25
I-2
tp313
I1
tp314
F0.0
s((I32
I29
I17
I-1
tp315
I1
tp316
I0
s((I22
I37
I27
I-3
tp317
I0
tp318
I0
s((I26
I33
I25
I-3
tp319
I0
tp320
F0.0
s((I19
I43
I25
I-3
tp321
I1
tp322
F0.0
s((I33
I13
I23
I1
tp323
I1
tp324
I0
s((I15
I46
I20
I-2
tp325
I1
tp326
F0.0
s((I24
I31
I20
I3
tp327
I0
tp328
I0
s((I13
I16
I17
I5
tp329
I1
tp330
F0.0
s((I15
I46
I25
I-3
tp331
I0
tp332
F0.0
s(g8
I0
tp333
F0.0
s(g303
I1
tp334
F0.0
s(g16
I1
tp335
I0
s(g111
I1
tp336
I0
s(g20
I1
tp337
I0
s((I16
I43
I23
I1
tp338
I1
tp339
F0.0
s(g22
I0
tp340
I0
s(g155
I0
tp341
F0.0
s((I22
I38
I17
I-2
tp342
I1
tp343
F0.0
s((I33
I6
I25
I0
tp344
I0
tp345
I0
s(g28
I0
tp346
F0.0
s(g30
I1
tp347
F0.0
s((I21
I18
I24
I5
tp348
I0
tp349
F0.0
s((I31
I3
I26
I-1
tp350
I0
tp351
F0.0
s(g36
I1
tp352
F0.0
s((I16
I45
I26
I-2
tp353
I1
tp354
I0
s(g38
I0
tp355
I0
s((I30
I14
I25
I0
tp356
I1
tp357
I0
s((I21
I41
I25
I-3
tp358
I0
tp359
I0
s((I28
I24
I23
I-1
tp360
I1
tp361
I0
s(g48
I0
tp362
F0.0
s(g52
I0
tp363
I0
s((I20
I29
I25
I3
tp364
I1
tp365
F0.0
s((I17
I11
I25
I-3
tp366
I0
tp367
F0.0
s(g12
I0
tp368
F0.0
s((I19
I17
I27
I-3
tp369
I1
tp370
I0
s(g70
I0
tp371
I0
s(g78
I0
tp372
F0.0
s(g14
I1
tp373
F0.0
s(g331
I1
tp374
I0
s(g81
I0
tp375
I0
s(g83
I0
tp376
I0
s(g85
I1
tp377
I0
s(g56
I0
tp378
I0
s((I18
I44
I20
I-3
tp379
I1
tp380
I0
s(g18
I0
tp381
F0.0
s((I15
I46
I17
I-3
tp382
I1
tp383
F0.0
s(g133
I0
tp384
I0
s(g89
I1
tp385
I0
s(g93
I1
tp386
F0.0
s(g97
I1
tp387
F0.0
s((I24
I7
I20
I5
tp388
I0
tp389
F0.0
s(g99
I0
tp390
F0.0
s(g103
I1
tp391
I0
s((I22
I22
I27
I5
tp392
I0
tp393
F0.0
s((I9
I4
I17
I5
tp394
I1
tp395
F0.0
s(g4
I1
tp396
F0.0
s(g115
I1
tp397
I0
s(g117
I0
tp398
F0.0
s(g342
I0
tp399
I0
s(g10
I0
tp400
I0
s(g44
I1
tp401
F0.0
s(g42
I1
tp402
F0.0
s(g129
I1
tp403
I0
s(g24
I0
tp404
F0.0
s(g135
I0
tp405
I0
s(g141
I0
tp406
I0
s(g26
I0
tp407
I0
s((I27
I25
I27
I3
tp408
I0
tp409
F0.0
s(g266
I1
tp410
I0
s(g147
I1
tp411
F0.0
s(g149
I1
tp412
F0.0
s(g34
I0
tp413
F0.0
s(g153
I1
tp414
F0.0
s(g40
I0
tp415
I0
s((I30
I6
I23
I-1
tp416
I0
tp417
F0.0
s(g163
I1
tp418
I0
s((I23
I17
I23
I2
tp419
I1
tp420
I0
s((I15
I36
I26
I-2
tp421
I1
tp422
I0
s(g172
I1
tp423
F0.0
s(g174
I1
tp424
F0.0
s(g176
I1
tp425
I0
s(g54
I1
tp426
F0.0
s(g180
I1
tp427
I0
s(g58
I1
tp428
I0
s(g184
I0
tp429
F0.0
s(g62
I0
tp430
F0.0
s((I24
I36
I24
I-3
tp431
I1
tp432
F0.0
s(g64
I0
tp433
F0.0
s(g72
I1
tp434
F0.0
s(g74
I0
tp435
I0
s(g76
I1
tp436
I0
s(g379
I0
tp437
F0.0
s(g416
I1
tp438
I0
s(g201
I1
tp439
F0.0
s(g109
I1
tp440
F0.0
s(g205
I1
tp441
F0.0
s(g87
I1
tp442
F0.0
s(g211
I1
tp443
I0
s(g213
I0
tp444
I0
s(g219
I0
tp445
I0
s(g221
I1
tp446
I0
s(g91
I0
tp447
F0.0
s(g227
I0
tp448
I0
s(g95
I1
tp449
I0
s(g101
I1
tp450
I0
s(g235
I1
tp451
F0.0
s(g105
I1
tp452
I0
s(g107
I1
tp453
F0.0
s(g240
I0
tp454
F0.0
s(g113
I0
tp455
I0
s(g244
I0
tp456
I0
s(g246
I1
tp457
I0
s(g151
I0
tp458
F0.0
s(g248
I0
tp459
F0.0
s(g119
I1
tp460
F0.0
s(g121
I0
tp461
I0
s(g252
I1
tp462
I0
s(g123
I0
tp463
I0
s(g125
I1
tp464
F0.0
s((I22
I35
I25
I-3
tp465
I1
tp466
I0
s(g127
I0
tp467
I0
s(g258
I0
tp468
F0.0
s(g131
I0
tp469
I0
s(g66
I0
tp470
F70.0
s(g137
I1
tp471
I0
s(g139
I1
tp472
I0
s(g143
I0
tp473
I0
s(g262
I1
tp474
F0.0
s(g465
I0
tp475
F0.0
s(g50
I0
tp476
I0
s(g145
I0
tp477
F0.0
s(g283
I1
tp478
I0
s(g272
I1
tp479
I0
s(g274
I1
tp480
F0.0
s(g276
I1
tp481
F0.0
s(g281
I1
tp482
F0.0
s(g157
I0
tp483
F0.0
s(g161
I1
tp484
I0
s(g165
I1
tp485
F0.0
s(g167
I0
tp486
F0.0
s(g419
I0
tp487
F0.0
s(g287
I1
tp488
I0
s(g293
I0
tp489
F0.0
s(g170
I0
tp490
F0.0
s(g178
I0
tp491
I0
s(g299
I1
tp492
F0.0
s(g182
I0
tp493
I0
s(g209
I1
tp494
F0.0
s(g32
I1
tp495
F0.0
s(g309
I1
tp496
I0
s(g159
I0
tp497
I0
s(g285
I1
tp498
I0
s(g188
I0
tp499
F0.0
s((I20
I14
I27
I0
tp500
I0
tp501
I0
s(g190
I1
tp502
F0.0
s(g192
I1
tp503
F0.0
s(g194
I1
tp504
I0
s(g196
I1
tp505
F0.0
s(g199
I1
tp506
I0
s(g325
I0
tp507
I0
s(g327
I1
tp508
F0.0
s(g203
I1
tp509
F0.0
s(g329
I0
tp510
I0
s(g207
I0
tp511
I0
s(g217
I1
tp512
F0.0
s(g408
I1
tp513
I0
s(g338
I0
tp514
I0
s(g223
I1
tp515
F0.0
s(g225
I0
tp516
I0
s(g431
I0
tp517
I0
s(g229
I0
tp518
I0
s(g344
I1
tp519
F0.0
s(g231
I0
tp520
F0.0
s(g233
I0
tp521
F0.0
s(g237
I1
tp522
I0
s(g500
I1
tp523
F0.0
s(g242
I0
tp524
I0
s(g46
I1
tp525
F0.0
s(g348
I1
tp526
I0
s(g350
I1
tp527
I0
s((I30
I4
I27
I0
tp528
I1
tp529
F0.0
s(g353
I0
tp530
F0.0
s(g254
I1
tp531
I0
s(g356
I0
tp532
F0.0
s(g278
I1
tp533
I0
s(g528
I0
tp534
I0
s(g358
I1
tp535
F0.0
s(g256
I1
tp536
F0.0
s(g260
I0
tp537
F0.0
s(g311
I0
tp538
F0.0
s(g360
I0
tp539
F0.0
s(g264
I1
tp540
F0.0
s(g364
I0
tp541
I0
s(g268
I1
tp542
F0.0
s(g366
I1
tp543
I0
s(g270
I0
tp544
F0.0
s(g305
I1
tp545
F0.0
s(g186
I0
tp546
I0
s(g289
I0
tp547
I0
s(g291
I1
tp548
I0
s(g295
I0
tp549
F0.0
s(g297
I1
tp550
I0
s(g6
I0
tp551
F0.0
s(g301
I0
tp552
F0.0
s(g307
I0
tp553
F0.0
s(g421
I0
tp554
F0.0
s(g369
I0
tp555
F0.0
s(g313
I0
tp556
I0
s(g382
I0
tp557
I0
s(g315
I0
tp558
F0.0
s(g388
I1
tp559
I0
s(g317
I1
tp560
F0.0
s(g319
I1
tp561
I0
s(g321
I0
tp562
F0.0
s(g323
I0
tp563
F0.0
s(g392
I1
tp564
I0
s(g394
I0
tp565
I0
s.