ccollections
defaultdict
p0
(c__builtin__
int
p1
tp2
Rp3
((I21
I41
I24
I-3
tp4
I1
tp5
I0
s((I15
I46
I24
I-2
tp6
I1
tp7
F0.0
s((I31
I30
I22
I-3
tp8
I1
tp9
I0
s((I27
I32
I25
I-3
tp10
I1
tp11
I0
s((I16
I43
I21
I1
tp12
I1
tp13
I0
s((I31
I12
I22
I2
tp14
I1
tp15
F0.0
s((I28
I20
I22
I-3
tp16
I1
tp17
F0.0
s((I8
I12
I22
I5
tp18
I0
tp19
F0.0
s((I19
I6
I16
I5
tp20
I0
tp21
I0
s((I31
I20
I26
I2
tp22
I1
tp23
I0
s((I29
I14
I16
I-1
tp24
I1
tp25
F0.0
s((I7
I2
I18
I-4
tp26
I1
tp27
F0.0
s((I24
I9
I16
I5
tp28
I1
tp29
I0
s((I27
I5
I24
I3
tp30
I1
tp31
F0.0
s((I16
I45
I26
I-2
tp32
I0
tp33
F0.0
s((I18
I3
I27
I5
tp34
I1
tp35
F0.0
s((I15
I42
I17
I2
tp36
I0
tp37
F0.0
s((I3
I26
I17
I5
tp38
I0
tp39
F0.0
s((I32
I21
I17
I1
tp40
I0
tp41
F0.0
s((I19
I27
I16
I3
tp42
I1
tp43
F0.0
s((I30
I6
I24
I3
tp44
I0
tp45
F0.0
s((I27
I6
I25
I-3
tp46
I1
tp47
I0
s((I16
I45
I25
I-2
tp48
I0
tp49
F0.0
s((I22
I40
I22
I-3
tp50
I1
tp51
F0.0
s((I25
I12
I17
I-3
tp52
I1
tp53
F0.0
s((I28
I9
I17
I-3
tp54
I0
tp55
F0.0
s((I28
I10
I26
I3
tp56
I1
tp57
F0.0
s((I30
I21
I22
I3
tp58
I1
tp59
F0.0
s((I16
I45
I24
I-2
tp60
I1
tp61
F0.0
s((I19
I40
I16
I-2
tp62
I1
tp63
F0.0
s((I28
I5
I27
I0
tp64
I0
tp65
F0.0
s((I21
I18
I25
I-3
tp66
I1
tp67
I0
s((I32
I14
I25
I1
tp68
I0
tp69
I0
s((I17
I17
I16
I5
tp70
I0
tp71
F0.0
s((I31
I29
I27
I-3
tp72
I0
tp73
F0.0
s((I31
I2
I21
I2
tp74
I1
tp75
F0.0
s((I19
I43
I26
I-3
tp76
I0
tp77
I0
s((I21
I18
I19
I-3
tp78
I1
tp79
I0
s((I30
I23
I27
I3
tp80
I1
tp81
I0
s((I14
I41
I21
I3
tp82
I0
tp83
I0
s((I16
I45
I22
I-2
tp84
I1
tp85
F0.0
s((I14
I11
I16
I-3
tp86
I0
tp87
F0.0
s((I33
I27
I17
I0
tp88
I0
tp89
I0
s((I22
I3
I25
I-3
tp90
I0
tp91
F0.0
s((I25
I38
I17
I-3
tp92
I1
tp93
I0
s((I19
I41
I22
I-1
tp94
I0
tp95
I0
s((I28
I11
I27
I0
tp96
I0
tp97
F0.0
s((I32
I23
I26
I0
tp98
I1
tp99
F0.0
s((I31
I17
I24
I0
tp100
I1
tp101
F0.0
s((I32
I14
I22
I0
tp102
I1
tp103
F0.0
s((I23
I17
I17
I-1
tp104
I0
tp105
F0.0
s((I19
I6
I22
I5
tp106
I0
tp107
F0.0
s((I18
I42
I16
I-4
tp108
I1
tp109
I0
s((I23
I35
I24
I0
tp110
I0
tp111
F0.0
s((I21
I3
I16
I-3
tp112
I1
tp113
I0
s((I15
I2
I17
I5
tp114
I1
tp115
I0
s((I26
I3
I23
I-3
tp116
I0
tp117
I0
s((I22
I7
I17
I0
tp118
I0
tp119
F0.0
s((I31
I27
I22
I-3
tp120
I1
tp121
I0
s((I28
I12
I16
I2
tp122
I1
tp123
I0
s((I25
I21
I24
I-3
tp124
I0
tp125
F0.0
s((I23
I29
I17
I-4
tp126
I0
tp127
F0.0
s((I28
I26
I22
I0
tp128
I1
tp129
I0
s((I27
I23
I27
I-3
tp130
I0
tp131
F0.0
s((I24
I35
I25
I-3
tp132
I0
tp133
I0
s((I28
I18
I17
I-3
tp134
I0
tp135
I0
s((I27
I3
I25
I1
tp136
I0
tp137
F0.0
s((I28
I35
I22
I-3
tp138
I0
tp139
F0.0
s((I20
I11
I18
I3
tp140
I1
tp141
I0
s((I5
I36
I17
I5
tp142
I0
tp143
I0
s((I30
I8
I24
I0
tp144
I0
tp145
F0.0
s((I28
I32
I24
I-4
tp146
I1
tp147
F0.0
s((I21
I37
I25
I-3
tp148
I0
tp149
I0
s((I17
I37
I27
I3
tp150
I0
tp151
I0
s((I19
I43
I27
I-3
tp152
I1
tp153
I0
s((I31
I25
I24
I2
tp154
I1
tp155
F0.0
s((I7
I34
I17
I-3
tp156
I0
tp157
F0.0
s((I18
I44
I24
I-3
tp158
I1
tp159
F0.0
s((I17
I35
I16
I-3
tp160
I1
tp161
F0.0
s((I27
I22
I26
I5
tp162
I0
tp163
I0
s((I32
I26
I22
I1
tp164
I0
tp165
F0.0
s((I29
I3
I24
I-3
tp166
I1
tp167
I0
s((I31
I16
I17
I-3
tp168
I0
tp169
I0
s((I29
I28
I17
I0
tp170
I0
tp171
I0
s((I23
I0
I25
I-1
tp172
I1
tp173
F0.0
s((I32
I30
I19
I0
tp174
I0
tp175
F0.0
s((I25
I36
I22
I-3
tp176
I1
tp177
I0
s((I17
I9
I18
I5
tp178
I0
tp179
F0.0
s((I15
I46
I27
I-2
tp180
I1
tp181
I0
s((I18
I20
I25
I0
tp182
I0
tp183
I0
s((I30
I3
I22
I1
tp184
I0
tp185
I0
s((I30
I8
I26
I-4
tp186
I0
tp187
I0
s((I16
I43
I25
I1
tp188
I1
tp189
F0.0
s((I21
I29
I16
I0
tp190
I0
tp191
F0.0
s(g38
I1
tp192
I0
s((I25
I37
I22
I-3
tp193
I1
tp194
F0.0
s((I21
I10
I17
I-3
tp195
I1
tp196
I0
s((I18
I40
I25
I-3
tp197
I1
tp198
F0.0
s((I8
I3
I16
I5
tp199
I0
tp200
I0
s((I7
I28
I17
I3
tp201
I0
tp202
F0.0
s((I22
I34
I22
I2
tp203
I0
tp204
I0
s((I3
I10
I22
I5
tp205
I1
tp206
F0.0
s((I25
I27
I24
I0
tp207
I1
tp208
I0
s((I22
I1
I24
I5
tp209
I1
tp210
I0
s((I29
I12
I25
I4
tp211
I0
tp212
F0.0
s((I21
I31
I17
I-1
tp213
I1
tp214
F0.0
s((I18
I31
I21
I-3
tp215
I0
tp216
I0
s((I32
I23
I25
I0
tp217
I1
tp218
I0
s((I30
I14
I21
I2
tp219
I1
tp220
F0.0
s((I29
I33
I22
I-1
tp221
I1
tp222
F0.0
s((I28
I12
I22
I1
tp223
I0
tp224
F0.0
s((I23
I36
I22
I0
tp225
I0
tp226
F0.0
s((I31
I25
I27
I1
tp227
I1
tp228
F0.0
s((I20
I32
I16
I-3
tp229
I0
tp230
F0.0
s((I6
I5
I22
I-1
tp231
I0
tp232
F0.0
s((I28
I18
I26
I5
tp233
I0
tp234
I0
s((I31
I4
I26
I1
tp235
I0
tp236
I0
s((I32
I29
I17
I-3
tp237
I1
tp238
F0.0
s((I32
I27
I27
I-1
tp239
I1
tp240
I0
s((I25
I19
I24
I0
tp241
I0
tp242
F0.0
s((I19
I37
I25
I0
tp243
I0
tp244
I0
s((I27
I9
I21
I-3
tp245
I1
tp246
F0.0
s((I18
I40
I26
I-3
tp247
I1
tp248
F0.0
s((I22
I40
I26
I-3
tp249
I0
tp250
I0
s((I31
I6
I26
I-2
tp251
I0
tp252
F0.0
s((I18
I44
I22
I-3
tp253
I1
tp254
I0
s((I27
I3
I27
I2
tp255
I1
tp256
F0.0
s((I24
I16
I27
I-3
tp257
I0
tp258
I0
s((I32
I29
I26
I-3
tp259
I1
tp260
F0.0
s((I19
I43
I22
I-3
tp261
I1
tp262
F0.0
s((I23
I27
I21
I-4
tp263
I1
tp264
I0
s((I12
I27
I18
I-3
tp265
I0
tp266
I0
s((I15
I25
I18
I-4
tp267
I1
tp268
F0.0
s(g18
I1
tp269
I0
s((I27
I13
I26
I4
tp270
I1
tp271
I0
s((I5
I3
I22
I2
tp272
I0
tp273
I0
s((I22
I40
I17
I-3
tp274
I0
tp275
F0.0
s((I30
I24
I17
I3
tp276
I0
tp277
I0
s((I27
I36
I19
I-4
tp278
I1
tp279
I0
s((I16
I1
I22
I-3
tp280
I1
tp281
I0
s((I23
I21
I22
I5
tp282
I0
tp283
F0.0
s((I15
I43
I26
I1
tp284
I0
tp285
I0
s((I28
I30
I22
I-3
tp286
I1
tp287
F0.0
s((I26
I35
I17
I0
tp288
I1
tp289
F0.0
s((I15
I46
I19
I-2
tp290
I1
tp291
F0.0
s((I15
I46
I18
I-3
tp292
I1
tp293
F0.0
s(I0
I0
tp294
F0.0
s((I16
I44
I16
I0
tp295
I0
tp296
I0
s((I31
I12
I26
I0
tp297
I0
tp298
F0.0
s((I21
I19
I27
I5
tp299
I1
tp300
F0.0
s((I29
I7
I22
I-3
tp301
I0
tp302
F0.0
s((I25
I35
I16
I-4
tp303
I0
tp304
I0
s((I23
I29
I27
I-3
tp305
I0
tp306
F0.0
s((I25
I31
I26
I0
tp307
I1
tp308
F0.0
s((I16
I34
I21
I2
tp309
I1
tp310
F0.0
s((I13
I7
I18
I5
tp311
I0
tp312
F0.0
s((I13
I15
I22
I5
tp313
I0
tp314
F0.0
s((I18
I44
I19
I-3
tp315
I1
tp316
F0.0
s((I19
I39
I27
I-1
tp317
I1
tp318
F0.0
s((I18
I18
I22
I5
tp319
I0
tp320
F0.0
s((I29
I14
I24
I3
tp321
I1
tp322
F0.0
s((I31
I24
I26
I3
tp323
I1
tp324
F0.0
s((I4
I7
I22
I-3
tp325
I0
tp326
F0.0
s((I25
I33
I22
I0
tp327
I0
tp328
I0
s((I28
I29
I25
I0
tp329
I1
tp330
F0.0
s((I26
I13
I27
I-3
tp331
I1
tp332
I0
s((I22
I36
I27
I-3
tp333
I1
tp334
F0.0
s((I29
I20
I26
I-3
tp335
I0
tp336
I0
s((I18
I41
I27
I-3
tp337
I0
tp338
F0.0
s((I28
I10
I22
I5
tp339
I0
tp340
I0
s((I27
I21
I21
I-4
tp341
I0
tp342
I0
s((I29
I32
I17
I-3
tp343
I0
tp344
I0
s((I32
I13
I17
I-1
tp345
I1
tp346
I0
s((I25
I37
I26
I-3
tp347
I1
tp348
F0.0
s((I16
I44
I27
I0
tp349
I1
tp350
F0.0
s((I20
I12
I25
I3
tp351
I0
tp352
F0.0
s((I24
I24
I17
I1
tp353
I1
tp354
I0
s((I25
I19
I22
I5
tp355
I1
tp356
F0.0
s((I12
I35
I18
I5
tp357
I0
tp358
F0.0
s((I19
I40
I27
I0
tp359
I1
tp360
I0
s((I20
I9
I26
I5
tp361
I0
tp362
F0.0
s((I32
I28
I24
I-1
tp363
I0
tp364
F0.0
s((I22
I14
I17
I1
tp365
I1
tp366
F0.0
s((I27
I22
I16
I5
tp367
I0
tp368
F0.0
s((I21
I29
I21
I-3
tp369
I1
tp370
F0.0
s((I31
I30
I24
I-3
tp371
I1
tp372
I0
s((I27
I20
I27
I0
tp373
I1
tp374
F0.0
s((I31
I30
I16
I-3
tp375
I0
tp376
I0
s((I18
I2
I26
I-1
tp377
I1
tp378
I0
s((I23
I32
I25
I0
tp379
I0
tp380
F0.0
s((I24
I34
I26
I-3
tp381
I0
tp382
F0.0
s((I28
I31
I17
I-3
tp383
I0
tp384
F0.0
s((I26
I22
I22
I5
tp385
I0
tp386
I0
s((I28
I28
I26
I-2
tp387
I0
tp388
I0
s(g90
I1
tp389
I0
s((I10
I39
I17
I5
tp390
I0
tp391
F0.0
s(g134
I1
tp392
F0.0
s((I18
I14
I23
I-4
tp393
I0
tp394
F70.0
s((I30
I19
I21
I-3
tp395
I0
tp396
F0.0
s((I21
I19
I17
I-4
tp397
I1
tp398
I0
s((I28
I17
I16
I-3
tp399
I1
tp400
I0
s((I6
I3
I18
I5
tp401
I1
tp402
F0.0
s(g369
I0
tp403
I0
s((I24
I29
I24
I-3
tp404
I1
tp405
I0
s((I22
I38
I16
I-3
tp406
I0
tp407
F0.0
s((I28
I35
I19
I-2
tp408
I0
tp409
I0
s((I29
I23
I24
I4
tp410
I0
tp411
I0
s((I24
I16
I24
I3
tp412
I1
tp413
F0.0
s((I25
I23
I21
I0
tp414
I0
tp415
I0
s(g160
I0
tp416
I0
s((I22
I5
I27
I5
tp417
I0
tp418
F0.0
s((I31
I25
I26
I-3
tp419
I0
tp420
F0.0
s((I23
I36
I17
I1
tp421
I1
tp422
F0.0
s((I20
I13
I19
I-3
tp423
I1
tp424
F0.0
s((I29
I11
I24
I-3
tp425
I1
tp426
F0.0
s((I16
I6
I26
I5
tp427
I0
tp428
I0
s((I22
I39
I22
I-3
tp429
I0
tp430
F0.0
s((I31
I17
I21
I-1
tp431
I0
tp432
F0.0
s((I27
I24
I22
I2
tp433
I1
tp434
I0
s((I24
I26
I27
I0
tp435
I1
tp436
F0.0
s((I15
I38
I21
I-3
tp437
I1
tp438
I0
s((I19
I7
I25
I-3
tp439
I1
tp440
I0
s((I12
I40
I17
I4
tp441
I1
tp442
F0.0
s((I32
I27
I16
I0
tp443
I1
tp444
I0
s((I29
I6
I17
I0
tp445
I0
tp446
F0.0
s((I19
I13
I17
I5
tp447
I0
tp448
I0
s((I15
I43
I25
I1
tp449
I0
tp450
I0
s((I18
I43
I24
I-3
tp451
I1
tp452
I0
s((I21
I38
I22
I-3
tp453
I1
tp454
F0.0
s((I20
I12
I23
I-2
tp455
I0
tp456
F70.0
s((I23
I23
I19
I5
tp457
I0
tp458
F0.0
s((I12
I40
I16
I4
tp459
I0
tp460
I0
s((I16
I45
I27
I-2
tp461
I1
tp462
F0.0
s((I24
I16
I17
I5
tp463
I0
tp464
F0.0
s((I15
I46
I21
I-2
tp465
I1
tp466
I0
s((I27
I4
I17
I3
tp467
I1
tp468
I0
s((I30
I24
I22
I3
tp469
I0
tp470
I0
s((I19
I5
I25
I0
tp471
I1
tp472
F0.0
s((I31
I4
I21
I-1
tp473
I0
tp474
F0.0
s((I19
I20
I18
I0
tp475
I0
tp476
I0
s((I30
I6
I21
I-3
tp477
I1
tp478
F0.0
s((I15
I43
I17
I1
tp479
I1
tp480
I0
s((I15
I46
I17
I-2
tp481
I0
tp482
I0
s((I17
I35
I17
I-3
tp483
I1
tp484
F0.0
s((I18
I23
I25
I-3
tp485
I0
tp486
F0.0
s((I24
I11
I26
I5
tp487
I0
tp488
F0.0
s((I26
I8
I27
I2
tp489
I0
tp490
F0.0
s((I27
I25
I19
I5
tp491
I1
tp492
I0
s((I15
I43
I16
I1
tp493
I0
tp494
F0.0
s((I26
I11
I21
I5
tp495
I1
tp496
F0.0
s((I32
I17
I25
I-2
tp497
I0
tp498
F0.0
s((I22
I24
I24
I3
tp499
I0
tp500
I0
s((I33
I28
I22
I-1
tp501
I0
tp502
F0.0
s((I28
I33
I16
I-3
tp503
I1
tp504
F0.0
s((I23
I10
I19
I-3
tp505
I0
tp506
F0.0
s((I26
I21
I27
I5
tp507
I1
tp508
I0
s((I21
I41
I19
I-3
tp509
I1
tp510
F0.0
s((I26
I8
I17
I5
tp511
I1
tp512
F0.0
s((I29
I19
I17
I4
tp513
I0
tp514
F0.0
s((I10
I5
I18
I5
tp515
I0
tp516
F0.0
s((I31
I28
I19
I2
tp517
I1
tp518
F0.0
s((I24
I7
I19
I0
tp519
I0
tp520
I0
s((I30
I18
I27
I-3
tp521
I1
tp522
F0.0
s((I14
I37
I16
I-3
tp523
I1
tp524
F0.0
s(g429
I1
tp525
I0
s((I33
I27
I26
I0
tp526
I1
tp527
I0
s((I24
I26
I21
I-2
tp528
I1
tp529
I0
s((I25
I27
I17
I-1
tp530
I0
tp531
F0.0
s((I22
I35
I25
I-3
tp532
I0
tp533
F0.0
s((I22
I15
I25
I0
tp534
I1
tp535
I0
s((I22
I20
I16
I5
tp536
I1
tp537
I0
s(g188
I0
tp538
I0
s((I28
I32
I27
I-3
tp539
I1
tp540
F0.0
s((I30
I17
I26
I-1
tp541
I1
tp542
F0.0
s((I22
I8
I23
I-4
tp543
I1
tp544
I0
s((I22
I39
I24
I-1
tp545
I1
tp546
F0.0
s((I14
I37
I17
I-3
tp547
I0
tp548
I0
s((I19
I41
I22
I-3
tp549
I1
tp550
F0.0
s((I28
I7
I27
I-3
tp551
I1
tp552
I0
s((I22
I16
I19
I-1
tp553
I0
tp554
F0.0
s((I18
I22
I18
I-3
tp555
I1
tp556
I0
s((I18
I16
I23
I5
tp557
I0
tp558
I0
s((I19
I43
I18
I-2
tp559
I1
tp560
I0
s((I24
I38
I19
I-3
tp561
I0
tp562
I0
s((I24
I5
I23
I-1
tp563
I0
tp564
I0
s((I14
I4
I22
I5
tp565
I0
tp566
I0
s((I15
I46
I22
I-2
tp567
I0
tp568
I0
s((I22
I17
I18
I-3
tp569
I0
tp570
F0.0
s((I30
I15
I26
I-3
tp571
I1
tp572
F0.0
s((I28
I28
I22
I-2
tp573
I0
tp574
F0.0
s((I21
I24
I16
I-3
tp575
I1
tp576
I0
s((I29
I3
I17
I0
tp577
I0
tp578
I0
s((I23
I21
I16
I0
tp579
I0
tp580
I0
s((I15
I8
I16
I0
tp581
I0
tp582
F0.0
s((I28
I35
I26
I-3
tp583
I0
tp584
F0.0
s((I20
I32
I27
I0
tp585
I1
tp586
F0.0
s(g4
I0
tp587
F0.0
s(g116
I1
tp588
F0.0
s(g6
I0
tp589
I0
s((I17
I10
I25
I5
tp590
I1
tp591
F0.0
s((I31
I17
I22
I-3
tp592
I0
tp593
F0.0
s((I17
I4
I26
I-3
tp594
I0
tp595
F0.0
s(g10
I0
tp596
F0.0
s((I31
I11
I17
I2
tp597
I1
tp598
F0.0
s(g12
I0
tp599
F0.0
s(g14
I0
tp600
I0
s((I20
I21
I17
I5
tp601
I1
tp602
F0.0
s((I24
I9
I22
I4
tp603
I1
tp604
I0
s((I31
I20
I24
I-3
tp605
I0
tp606
I0
s((I26
I21
I17
I5
tp607
I0
tp608
I0
s((I29
I32
I26
I0
tp609
I1
tp610
F0.0
s(g20
I1
tp611
F0.0
s(g445
I1
tp612
I0
s((I20
I10
I23
I1
tp613
I0
tp614
I0
s((I25
I34
I17
I-3
tp615
I1
tp616
F0.0
s(g22
I0
tp617
F0.0
s((I29
I5
I17
I-3
tp618
I0
tp619
F0.0
s(g24
I0
tp620
I0
s(g26
I0
tp621
I0
s((I23
I37
I16
I-2
tp622
I0
tp623
I0
s(g30
I0
tp624
I0
s((I17
I15
I19
I0
tp625
I1
tp626
F70.0
s(g34
I0
tp627
I0
s((I23
I23
I17
I3
tp628
I0
tp629
F0.0
s(g42
I0
tp630
I0
s(g48
I1
tp631
I0
s((I29
I20
I25
I3
tp632
I1
tp633
F0.0
s((I24
I31
I22
I-3
tp634
I0
tp635
I0
s(g50
I0
tp636
I0
s(g52
I0
tp637
I0
s(g56
I0
tp638
I0
s((I31
I32
I19
I-3
tp639
I1
tp640
I0
s(g511
I0
tp641
I0
s(g60
I0
tp642
I0
s(g461
I0
tp643
I0
s((I16
I26
I25
I5
tp644
I0
tp645
I0
s(g62
I0
tp646
I0
s((I17
I36
I21
I-1
tp647
I0
tp648
F0.0
s(g66
I0
tp649
F0.0
s(g509
I0
tp650
I0
s(g68
I1
tp651
F0.0
s((I7
I32
I18
I5
tp652
I0
tp653
I0
s((I16
I44
I22
I0
tp654
I0
tp655
I0
s(g72
I1
tp656
I0
s(g78
I0
tp657
F0.0
s(g80
I0
tp658
F0.0
s((I32
I25
I22
I0
tp659
I1
tp660
F0.0
s(g84
I0
tp661
F0.0
s((I29
I34
I19
I-5
tp662
I1
tp663
I0
s(g86
I1
tp664
I0
s((I12
I14
I16
I5
tp665
I1
tp666
F0.0
s((I32
I25
I17
I-2
tp667
I0
tp668
I0
s(g28
I0
tp669
F0.0
s((I25
I9
I25
I5
tp670
I0
tp671
I0
s((I31
I16
I27
I-1
tp672
I0
tp673
F0.0
s(g92
I0
tp674
F0.0
s(g94
I1
tp675
F0.0
s((I16
I45
I16
I-2
tp676
I1
tp677
I0
s(g96
I1
tp678
I0
s(g98
I0
tp679
I0
s((I21
I37
I26
I-3
tp680
I1
tp681
F0.0
s(g106
I1
tp682
I0
s((I16
I45
I17
I-1
tp683
I0
tp684
F0.0
s((I20
I29
I25
I3
tp685
I1
tp686
I0
s(g110
I1
tp687
I0
s((I32
I9
I24
I0
tp688
I1
tp689
I0
s(g449
I1
tp690
F0.0
s(g112
I0
tp691
F0.0
s(g114
I0
tp692
I0
s((I30
I32
I22
I-5
tp693
I1
tp694
I0
s(g118
I1
tp695
I0
s((I31
I5
I22
I-1
tp696
I0
tp697
F0.0
s((I20
I40
I24
I0
tp698
I0
tp699
I0
s(g120
I0
tp700
F0.0
s((I12
I5
I16
I3
tp701
I1
tp702
I0
s((I28
I15
I22
I-2
tp703
I1
tp704
I0
s((I8
I31
I17
I0
tp705
I0
tp706
F0.0
s((I20
I33
I17
I-3
tp707
I1
tp708
I0
s((I23
I14
I18
I0
tp709
I1
tp710
I0
s(g130
I1
tp711
I0
s((I26
I29
I22
I-4
tp712
I1
tp713
I0
s((I22
I37
I24
I-3
tp714
I0
tp715
F0.0
s(g136
I1
tp716
I0
s((I25
I19
I16
I-3
tp717
I1
tp718
F0.0
s(g138
I1
tp719
I0
s((I31
I12
I24
I-3
tp720
I0
tp721
F0.0
s((I30
I13
I27
I2
tp722
I0
tp723
I0
s(g144
I1
tp724
I0
s((I19
I40
I18
I1
tp725
I0
tp726
F0.0
s((I19
I43
I17
I-3
tp727
I0
tp728
I0
s((I19
I20
I19
I5
tp729
I1
tp730
F0.0
s((I21
I13
I19
I2
tp731
I1
tp732
F0.0
s((I30
I2
I19
I-3
tp733
I0
tp734
I0
s(g158
I0
tp735
I0
s((I31
I26
I25
I-3
tp736
I1
tp737
I0
s(g16
I0
tp738
I0
s((I16
I37
I18
I4
tp739
I1
tp740
I0
s(g662
I0
tp741
F0.0
s(g162
I1
tp742
F0.0
s(g166
I0
tp743
F0.0
s((I25
I34
I27
I-3
tp744
I1
tp745
F0.0
s(g170
I1
tp746
F0.0
s((I26
I34
I24
I-1
tp747
I0
tp748
I0
s(g184
I1
tp749
F0.0
s((I25
I36
I24
I-3
tp750
I0
tp751
F0.0
s(g186
I1
tp752
F0.0
s((I21
I32
I24
I3
tp753
I1
tp754
F0.0
s(g190
I1
tp755
I0
s(g235
I1
tp756
F0.0
s((I26
I13
I24
I-3
tp757
I0
tp758
I0
s(g36
I1
tp759
I0
s((I30
I25
I16
I3
tp760
I0
tp761
I0
s(g193
I0
tp762
I0
s(g195
I0
tp763
F0.0
s((I19
I34
I27
I-3
tp764
I1
tp765
I0
s(g46
I0
tp766
F0.0
s(g199
I1
tp767
F0.0
s(g8
I0
tp768
F0.0
s(g211
I1
tp769
I0
s(g213
I0
tp770
I0
s((I20
I4
I17
I3
tp771
I0
tp772
F0.0
s(g64
I1
tp773
I0
s(g219
I0
tp774
I0
s(g201
I1
tp775
I0
s(g237
I0
tp776
I0
s(g40
I1
tp777
I0
s(g241
I1
tp778
I0
s(g44
I1
tp779
I0
s(g247
I0
tp780
I0
s(g54
I1
tp781
I0
s(g58
I0
tp782
I0
s(g263
I0
tp783
F0.0
s(g265
I1
tp784
F0.0
s(g70
I1
tp785
I0
s(g74
I0
tp786
I0
s(g76
I1
tp787
F0.0
s(g272
I1
tp788
F0.0
s(g274
I1
tp789
F0.0
s(g276
I1
tp790
F0.0
s(g82
I1
tp791
F0.0
s(g286
I0
tp792
I0
s(g88
I1
tp793
F0.0
s(g239
I0
tp794
F0.0
s(g295
I1
tp795
F0.0
s(g245
I0
tp796
I0
s(g100
I0
tp797
I0
s(g249
I1
tp798
F0.0
s(g303
I1
tp799
F0.0
s(g102
I0
tp800
I0
s(g104
I1
tp801
I0
s(g108
I0
tp802
F0.0
s(g148
I1
tp803
F0.0
s(g317
I0
tp804
I0
s(g150
I1
tp805
F0.0
s(g325
I1
tp806
I0
s(g122
I0
tp807
F0.0
s(g261
I0
tp808
I0
s(g327
I1
tp809
F0.0
s(g124
I1
tp810
I0
s(g126
I1
tp811
I0
s(g128
I0
tp812
F0.0
s(g282
I1
tp813
I0
s(g335
I1
tp814
F0.0
s(g132
I1
tp815
F0.0
s((I16
I45
I17
I-2
tp816
I0
tp817
F0.0
s(g347
I0
tp818
I0
s(g349
I0
tp819
I0
s(g140
I0
tp820
F0.0
s(g355
I0
tp821
I0
s(g142
I1
tp822
F0.0
s(g357
I1
tp823
I0
s(g361
I1
tp824
I0
s(g363
I1
tp825
I0
s(g146
I0
tp826
I0
s(g367
I1
tp827
I0
s(g203
I1
tp828
F0.0
s(g375
I1
tp829
F0.0
s(g154
I0
tp830
I0
s(g379
I1
tp831
I0
s(g156
I1
tp832
I0
s(g387
I1
tp833
F0.0
s(g164
I1
tp834
I0
s(g168
I1
tp835
F0.0
s((I26
I10
I27
I5
tp836
I0
tp837
I0
s(g172
I0
tp838
I0
s(g397
I0
tp839
F0.0
s(g174
I1
tp840
I0
s(g176
I0
tp841
F0.0
s((I9
I29
I18
I-3
tp842
I0
tp843
I0
s(g178
I1
tp844
I0
s(g182
I1
tp845
F0.0
s(g408
I1
tp846
F0.0
s(g410
I1
tp847
F0.0
s(g412
I0
tp848
I0
s(g421
I0
tp849
I0
s(g197
I0
tp850
F0.0
s(g423
I0
tp851
I0
s(g425
I0
tp852
I0
s(g842
I1
tp853
F0.0
s(g253
I0
tp854
F0.0
s(g433
I0
tp855
F0.0
s(g255
I0
tp856
I0
s(g205
I0
tp857
I0
s(g435
I0
tp858
I0
s(g257
I1
tp859
F0.0
s(g207
I0
tp860
F0.0
s(g209
I0
tp861
F0.0
s(g437
I0
tp862
F0.0
s(g441
I0
tp863
I0
s(g215
I1
tp864
F0.0
s(g443
I0
tp865
F0.0
s((I27
I4
I19
I-3
tp866
I0
tp867
I0
s(g607
I1
tp868
F0.0
s(g390
I1
tp869
I0
s(g217
I0
tp870
F0.0
s(g447
I1
tp871
F0.0
s(g221
I0
tp872
I0
s(g399
I0
tp873
F0.0
s(g223
I1
tp874
I0
s(g227
I0
tp875
I0
s(g225
I1
tp876
I0
s(g457
I1
tp877
I0
s(g229
I1
tp878
I0
s(g231
I1
tp879
I0
s(g463
I1
tp880
I0
s(g233
I1
tp881
F0.0
s(g467
I0
tp882
F0.0
s(g243
I1
tp883
F0.0
s(g471
I0
tp884
I0
s(g473
I1
tp885
I0
s(g305
I1
tp886
I0
s(g725
I1
tp887
I0
s(g259
I0
tp888
I0
s(g267
I0
tp889
I0
s(g495
I0
tp890
I0
s(g497
I1
tp891
I0
s(g270
I0
tp892
F0.0
s(g278
I0
tp893
F0.0
s(g507
I0
tp894
F0.0
s(g280
I0
tp895
F0.0
s(g331
I0
tp896
F0.0
s(g377
I0
tp897
F0.0
s(g284
I1
tp898
F0.0
s(g288
I0
tp899
I0
s(g290
I0
tp900
I0
s(g519
I1
tp901
F0.0
s(g292
I0
tp902
I0
s(g297
I1
tp903
I0
s(g299
I0
tp904
I0
s(g351
I1
tp905
I0
s(g301
I1
tp906
I0
s(g528
I0
tp907
F0.0
s(g307
I0
tp908
I0
s(g536
I0
tp909
F0.0
s(g311
I1
tp910
I0
s(g313
I1
tp911
I0
s(g541
I0
tp912
I0
s(g543
I0
tp913
F70.0
s(g545
I0
tp914
I0
s(g315
I0
tp915
I0
s(g489
I1
tp916
I0
s(g319
I1
tp917
I0
s(g321
I0
tp918
I0
s(g836
I1
tp919
F0.0
s(g323
I0
tp920
I0
s(g515
I1
tp921
I0
s(g551
I0
tp922
F0.0
s(g555
I0
tp923
F0.0
s(g557
I1
tp924
F0.0
s(g329
I0
tp925
I0
s((I26
I4
I24
I5
tp926
I1
tp927
I0
s((I30
I15
I26
I1
tp928
I0
tp929
I0
s(g333
I0
tp930
I0
s(g513
I1
tp931
I0
s(g337
I1
tp932
I0
s(g561
I1
tp933
F0.0
s(g339
I1
tp934
F0.0
s(g341
I1
tp935
F0.0
s(g563
I1
tp936
F70.0
s(g343
I1
tp937
F0.0
s(g345
I0
tp938
F0.0
s(g569
I1
tp939
I0
s(g573
I1
tp940
I0
s(g353
I0
tp941
F0.0
s(g359
I0
tp942
F0.0
s(g579
I1
tp943
F0.0
s(g32
I1
tp944
F0.0
s(g583
I1
tp945
I0
s(g365
I0
tp946
I0
s(g753
I0
tp947
I0
s(g585
I0
tp948
I0
s(g771
I1
tp949
I0
s(g539
I0
tp950
I0
s(g731
I0
tp951
I0
s(g371
I0
tp952
F0.0
s(g590
I0
tp953
I0
s(g373
I0
tp954
I0
s(g594
I1
tp955
I0
s(g597
I0
tp956
I0
s(g381
I1
tp957
I0
s(g383
I1
tp958
I0
s(g601
I0
tp959
I0
s(g603
I0
tp960
F0.0
s(g385
I1
tp961
F0.0
s(g605
I1
tp962
F0.0
s(g609
I0
tp963
I0
s(g393
I1
tp964
I0
s(g683
I1
tp965
I0
s(g395
I1
tp966
I0
s(g613
I1
tp967
F70.0
s(g401
I0
tp968
I0
s(g404
I0
tp969
F0.0
s(g615
I0
tp970
I0
s(g406
I1
tp971
I0
s(g459
I1
tp972
F0.0
s(g618
I1
tp973
I0
s(g622
I1
tp974
F0.0
s(g414
I1
tp975
F0.0
s(g625
I0
tp976
I0
s(g417
I1
tp977
I0
s(g628
I1
tp978
I0
s(g419
I1
tp979
I0
s(g577
I1
tp980
F0.0
s(g632
I0
tp981
I0
s(g634
I1
tp982
F0.0
s(g427
I1
tp983
F0.0
s(g431
I1
tp984
I0
s(g639
I0
tp985
F0.0
s(g928
I1
tp986
F0.0
s(g705
I1
tp987
I0
s(g592
I1
tp988
I0
s(g481
I1
tp989
F0.0
s(g644
I1
tp990
F0.0
s(g439
I0
tp991
F0.0
s(g647
I1
tp992
I0
s(g487
I1
tp993
I0
s(g926
I0
tp994
F0.0
s(g652
I1
tp995
F0.0
s(g654
I1
tp996
F0.0
s(g866
I1
tp997
F0.0
s(g451
I0
tp998
F0.0
s(g453
I0
tp999
I0
s(g455
I1
tp1000
I0
s(g659
I0
tp1001
I0
s(g816
I1
tp1002
F0.0
s(g665
I0
tp1003
I0
s(g667
I1
tp1004
F0.0
s(g549
I0
tp1005
I0
s(g670
I1
tp1006
F0.0
s(g465
I0
tp1007
F0.0
s(g672
I1
tp1008
I0
s(g469
I1
tp1009
F0.0
s(g676
I0
tp1010
F0.0
s(g680
I0
tp1011
I0
s(g475
I1
tp1012
F0.0
s(g477
I0
tp1013
I0
s(g479
I0
tp1014
F0.0
s(g685
I0
tp1015
F0.0
s(g688
I0
tp1016
F0.0
s(g483
I0
tp1017
I0
s(g485
I1
tp1018
I0
s(g693
I0
tp1019
F0.0
s(g152
I0
tp1020
F0.0
s(g491
I0
tp1021
F0.0
s(g696
I1
tp1022
I0
s(g493
I1
tp1023
I0
s(g698
I1
tp1024
F0.0
s(g499
I1
tp1025
F0.0
s(g703
I0
tp1026
F0.0
s(g501
I1
tp1027
I0
s(g503
I0
tp1028
I0
s(g505
I1
tp1029
I0
s(g251
I1
tp1030
I0
s(g707
I0
tp1031
F0.0
s(g709
I0
tp1032
F0.0
s(g517
I0
tp1033
I0
s(g521
I0
tp1034
I0
s(g712
I0
tp1035
F0.0
s(g523
I0
tp1036
I0
s(g714
I1
tp1037
I0
s(g717
I0
tp1038
I0
s(g180
I0
tp1039
F0.0
s(g526
I0
tp1040
F0.0
s(g720
I1
tp1041
I0
s(g530
I1
tp1042
I0
s(g722
I1
tp1043
F0.0
s(g532
I1
tp1044
I0
s(g534
I0
tp1045
F0.0
s(g309
I0
tp1046
I0
s(g727
I1
tp1047
F0.0
s(g729
I0
tp1048
I0
s(g733
I1
tp1049
F0.0
s(g547
I1
tp1050
F0.0
s(g736
I0
tp1051
F0.0
s(g701
I0
tp1052
F0.0
s(g739
I0
tp1053
F0.0
s(g553
I1
tp1054
I0
s(g744
I0
tp1055
I0
s(g747
I1
tp1056
F0.0
s(g559
I0
tp1057
F0.0
s(g750
I1
tp1058
I0
s(g565
I1
tp1059
F0.0
s(g567
I1
tp1060
F0.0
s(g571
I0
tp1061
I0
s(g757
I1
tp1062
F0.0
s(g575
I0
tp1063
F0.0
s(g760
I1
tp1064
F0.0
s(g764
I0
tp1065
F0.0
s(g581
I1
tp1066
I0
s.