ccollections
defaultdict
p0
(c__builtin__
int
p1
tp2
Rp3
((I21
I41
I24
I-3
tp4
I1
tp5
I0
s((I15
I46
I24
I-2
tp6
I1
tp7
F0.0
s((I16
I43
I21
I1
tp8
I1
tp9
I0
s((I31
I20
I26
I2
tp10
I1
tp11
I0
s((I7
I2
I18
I-4
tp12
I1
tp13
F0.0
s((I27
I5
I24
I3
tp14
I1
tp15
F0.0
s((I16
I45
I26
I-2
tp16
I0
tp17
F0.0
s((I30
I6
I24
I3
tp18
I0
tp19
F0.0
s((I16
I45
I25
I-2
tp20
I0
tp21
F0.0
s((I25
I12
I17
I-3
tp22
I1
tp23
F0.0
s((I28
I9
I17
I-3
tp24
I0
tp25
F0.0
s((I28
I10
I26
I3
tp26
I1
tp27
F0.0
s((I30
I21
I22
I3
tp28
I1
tp29
F0.0
s((I16
I45
I24
I-2
tp30
I1
tp31
F0.0
s((I19
I40
I16
I-2
tp32
I1
tp33
F0.0
s((I21
I18
I25
I-3
tp34
I1
tp35
I0
s((I17
I17
I16
I5
tp36
I0
tp37
F0.0
s((I31
I2
I21
I2
tp38
I1
tp39
F0.0
s((I21
I18
I19
I-3
tp40
I1
tp41
I0
s((I14
I41
I21
I3
tp42
I0
tp43
I0
s((I16
I45
I22
I-2
tp44
I1
tp45
I0
s((I14
I11
I16
I-3
tp46
I0
tp47
F0.0
s((I22
I3
I25
I-3
tp48
I0
tp49
F0.0
s((I32
I23
I26
I0
tp50
I1
tp51
F0.0
s((I31
I17
I24
I0
tp52
I1
tp53
F0.0
s((I23
I17
I17
I-1
tp54
I0
tp55
F0.0
s((I19
I6
I22
I5
tp56
I0
tp57
F0.0
s((I18
I42
I16
I-4
tp58
I1
tp59
I0
s((I23
I35
I24
I0
tp60
I0
tp61
F0.0
s((I26
I3
I23
I-3
tp62
I0
tp63
I0
s((I31
I27
I22
I-3
tp64
I1
tp65
I0
s((I25
I21
I24
I-3
tp66
I0
tp67
F0.0
s((I23
I29
I17
I-4
tp68
I0
tp69
F0.0
s((I20
I11
I18
I3
tp70
I1
tp71
I0
s((I30
I8
I24
I0
tp72
I0
tp73
F0.0
s((I28
I32
I24
I-4
tp74
I1
tp75
F0.0
s((I31
I25
I24
I2
tp76
I1
tp77
F0.0
s((I18
I44
I24
I-3
tp78
I1
tp79
F0.0
s((I29
I3
I24
I-3
tp80
I1
tp81
I0
s((I23
I0
I25
I-1
tp82
I1
tp83
F0.0
s((I32
I30
I19
I0
tp84
I0
tp85
F0.0
s((I25
I36
I22
I-3
tp86
I1
tp87
I0
s((I17
I9
I18
I5
tp88
I0
tp89
F0.0
s((I18
I20
I25
I0
tp90
I0
tp91
I0
s((I30
I8
I26
I-4
tp92
I0
tp93
I0
s((I16
I43
I25
I1
tp94
I1
tp95
F0.0
s((I18
I40
I25
I-3
tp96
I1
tp97
I0
s((I8
I3
I16
I5
tp98
I0
tp99
I0
s((I25
I27
I24
I0
tp100
I1
tp101
I0
s((I22
I1
I24
I5
tp102
I1
tp103
I0
s((I21
I31
I17
I-1
tp104
I1
tp105
F0.0
s((I18
I31
I21
I-3
tp106
I0
tp107
I0
s((I30
I14
I21
I2
tp108
I1
tp109
F0.0
s((I28
I12
I22
I1
tp110
I0
tp111
F0.0
s((I28
I18
I26
I5
tp112
I0
tp113
I0
s((I31
I4
I26
I1
tp114
I0
tp115
I0
s((I25
I19
I24
I0
tp116
I0
tp117
F0.0
s((I19
I37
I25
I0
tp118
I0
tp119
I0
s((I27
I9
I21
I-3
tp120
I1
tp121
F0.0
s((I18
I40
I26
I-3
tp122
I1
tp123
F0.0
s((I31
I6
I26
I-2
tp124
I0
tp125
F0.0
s((I23
I27
I21
I-4
tp126
I1
tp127
I0
s((I12
I27
I18
I-3
tp128
I0
tp129
I0
s((I15
I25
I18
I-4
tp130
I1
tp131
F0.0
s((I27
I36
I19
I-4
tp132
I1
tp133
I0
s((I16
I1
I22
I-3
tp134
I1
tp135
I0
s((I15
I43
I26
I1
tp136
I0
tp137
I0
s((I28
I30
I22
I-3
tp138
I1
tp139
F0.0
s((I15
I46
I19
I-2
tp140
I1
tp141
F0.0
s((I15
I46
I18
I-3
tp142
I1
tp143
F0.0
s(I0
I0
tp144
F0.0
s((I16
I44
I16
I0
tp145
I0
tp146
I0
s((I31
I12
I26
I0
tp147
I0
tp148
F0.0
s((I25
I35
I16
I-4
tp149
I0
tp150
I0
s((I25
I31
I26
I0
tp151
I1
tp152
F0.0
s((I16
I34
I21
I2
tp153
I1
tp154
F0.0
s((I13
I7
I18
I5
tp155
I0
tp156
F0.0
s((I18
I44
I19
I-3
tp157
I1
tp158
F0.0
s((I29
I14
I24
I3
tp159
I1
tp160
F0.0
s((I25
I33
I22
I0
tp161
I0
tp162
I0
s((I27
I21
I21
I-4
tp163
I0
tp164
I0
s((I20
I12
I25
I3
tp165
I0
tp166
F0.0
s((I24
I24
I17
I1
tp167
I1
tp168
I0
s((I25
I19
I22
I5
tp169
I1
tp170
F0.0
s((I12
I35
I18
I5
tp171
I0
tp172
F0.0
s((I32
I28
I24
I-1
tp173
I0
tp174
F0.0
s((I22
I14
I17
I1
tp175
I1
tp176
F0.0
s((I27
I22
I16
I5
tp177
I0
tp178
F0.0
s((I21
I29
I21
I-3
tp179
I1
tp180
F0.0
s((I31
I30
I24
I-3
tp181
I1
tp182
I0
s((I31
I30
I16
I-3
tp183
I0
tp184
I0
s((I23
I32
I25
I0
tp185
I0
tp186
F0.0
s((I24
I34
I26
I-3
tp187
I0
tp188
F0.0
s((I28
I28
I26
I-2
tp189
I0
tp190
I0
s(g48
I1
tp191
I0
s((I18
I14
I23
I-4
tp192
I0
tp193
F70.0
s((I30
I19
I21
I-3
tp194
I0
tp195
F0.0
s((I21
I19
I17
I-4
tp196
I1
tp197
I0
s((I6
I3
I18
I5
tp198
I1
tp199
F0.0
s(g179
I0
tp200
I0
s((I24
I29
I24
I-3
tp201
I1
tp202
I0
s((I22
I38
I16
I-3
tp203
I0
tp204
F0.0
s((I28
I35
I19
I-2
tp205
I0
tp206
I0
s((I29
I23
I24
I4
tp207
I0
tp208
I0
s((I24
I16
I24
I3
tp209
I1
tp210
F0.0
s((I25
I23
I21
I0
tp211
I0
tp212
I0
s((I31
I25
I26
I-3
tp213
I0
tp214
F0.0
s((I20
I13
I19
I-3
tp215
I1
tp216
F0.0
s((I29
I11
I24
I-3
tp217
I1
tp218
F0.0
s((I31
I17
I21
I-1
tp219
I0
tp220
F0.0
s((I15
I38
I21
I-3
tp221
I1
tp222
I0
s((I19
I7
I25
I-3
tp223
I1
tp224
I0
s((I12
I40
I17
I4
tp225
I1
tp226
F0.0
s((I32
I27
I16
I0
tp227
I1
tp228
I0
s((I29
I6
I17
I0
tp229
I0
tp230
F0.0
s((I18
I43
I24
I-3
tp231
I1
tp232
I0
s((I21
I38
I22
I-3
tp233
I1
tp234
F0.0
s((I20
I12
I23
I-2
tp235
I0
tp236
F70.0
s((I23
I23
I19
I5
tp237
I0
tp238
F0.0
s((I15
I46
I21
I-2
tp239
I1
tp240
I0
s((I27
I4
I17
I3
tp241
I1
tp242
I0
s((I19
I5
I25
I0
tp243
I1
tp244
F0.0
s((I31
I4
I21
I-1
tp245
I0
tp246
F0.0
s((I19
I20
I18
I0
tp247
I0
tp248
I0
s((I30
I6
I21
I-3
tp249
I1
tp250
F0.0
s((I15
I43
I17
I1
tp251
I1
tp252
I0
s((I17
I35
I17
I-3
tp253
I1
tp254
F0.0
s((I18
I23
I25
I-3
tp255
I0
tp256
F0.0
s((I27
I25
I19
I5
tp257
I1
tp258
I0
s((I26
I11
I21
I5
tp259
I1
tp260
F0.0
s((I22
I24
I24
I3
tp261
I0
tp262
I0
s((I28
I33
I16
I-3
tp263
I1
tp264
F0.0
s((I23
I10
I19
I-3
tp265
I0
tp266
F0.0
s((I21
I41
I19
I-3
tp267
I1
tp268
F0.0
s((I10
I5
I18
I5
tp269
I0
tp270
F0.0
s((I31
I28
I19
I2
tp271
I1
tp272
F0.0
s((I24
I7
I19
I0
tp273
I0
tp274
I0
s((I24
I26
I21
I-2
tp275
I1
tp276
I0
s((I25
I27
I17
I-1
tp277
I0
tp278
F0.0
s((I22
I35
I25
I-3
tp279
I0
tp280
F0.0
s((I22
I15
I25
I0
tp281
I1
tp282
I0
s((I22
I20
I16
I5
tp283
I1
tp284
I0
s(g94
I0
tp285
I0
s((I22
I8
I23
I-4
tp286
I1
tp287
I0
s((I22
I39
I24
I-1
tp288
I1
tp289
F0.0
s((I14
I37
I17
I-3
tp290
I0
tp291
I0
s((I19
I41
I22
I-3
tp292
I1
tp293
F0.0
s((I22
I16
I19
I-1
tp294
I0
tp295
F0.0
s((I18
I22
I18
I-3
tp296
I1
tp297
I0
s((I18
I16
I23
I5
tp298
I0
tp299
I0
s((I19
I43
I18
I-2
tp300
I1
tp301
I0
s((I24
I38
I19
I-3
tp302
I0
tp303
I0
s((I24
I5
I23
I-1
tp304
I0
tp305
I0
s((I14
I4
I22
I5
tp306
I0
tp307
I0
s((I22
I17
I18
I-3
tp308
I0
tp309
F0.0
s((I30
I15
I26
I-3
tp310
I1
tp311
F0.0
s((I15
I8
I16
I0
tp312
I0
tp313
F0.0
s(g4
I0
tp314
F0.0
s(g62
I1
tp315
F0.0
s(g6
I0
tp316
I0
s((I17
I10
I25
I5
tp317
I1
tp318
F0.0
s(g8
I0
tp319
F0.0
s((I20
I21
I17
I5
tp320
I1
tp321
F0.0
s((I24
I9
I22
I4
tp322
I1
tp323
I0
s((I31
I20
I24
I-3
tp324
I0
tp325
I0
s(g229
I1
tp326
I0
s((I20
I10
I23
I1
tp327
I0
tp328
I0
s(g10
I0
tp329
F0.0
s(g12
I0
tp330
I0
s((I23
I37
I16
I-2
tp331
I0
tp332
I0
s(g14
I0
tp333
I0
s((I17
I15
I19
I0
tp334
I1
tp335
F70.0
s((I23
I23
I17
I3
tp336
I0
tp337
F0.0
s(g20
I1
tp338
I0
s(g22
I0
tp339
I0
s(g26
I0
tp340
I0
s((I31
I32
I19
I-3
tp341
I1
tp342
I0
s(g30
I0
tp343
I0
s((I16
I26
I25
I5
tp344
I0
tp345
I0
s(g32
I0
tp346
I0
s((I17
I36
I21
I-1
tp347
I0
tp348
F0.0
s(g34
I0
tp349
F0.0
s(g267
I0
tp350
I0
s((I7
I32
I18
I5
tp351
I0
tp352
I0
s((I16
I44
I22
I0
tp353
I0
tp354
I0
s(g40
I0
tp355
F0.0
s((I32
I25
I22
I0
tp356
I1
tp357
F0.0
s(g44
I0
tp358
F0.0
s((I29
I34
I19
I-5
tp359
I1
tp360
I0
s(g46
I1
tp361
I0
s((I12
I14
I16
I5
tp362
I1
tp363
F0.0
s((I16
I45
I16
I-2
tp364
I1
tp365
I0
s(g50
I0
tp366
I0
s((I21
I37
I26
I-3
tp367
I1
tp368
F0.0
s(g56
I1
tp369
I0
s((I20
I29
I25
I3
tp370
I1
tp371
I0
s(g60
I1
tp372
I0
s((I32
I9
I24
I0
tp373
I1
tp374
I0
s((I20
I40
I24
I0
tp375
I0
tp376
I0
s(g64
I0
tp377
F0.0
s((I12
I5
I16
I3
tp378
I1
tp379
I0
s((I28
I15
I22
I-2
tp380
I1
tp381
I0
s((I20
I33
I17
I-3
tp382
I1
tp383
I0
s((I23
I14
I18
I0
tp384
I1
tp385
I0
s((I22
I37
I24
I-3
tp386
I0
tp387
F0.0
s((I31
I12
I24
I-3
tp388
I0
tp389
F0.0
s(g72
I1
tp390
I0
s((I19
I40
I18
I1
tp391
I0
tp392
F0.0
s((I19
I20
I19
I5
tp393
I1
tp394
F0.0
s((I21
I13
I19
I2
tp395
I1
tp396
F0.0
s((I30
I2
I19
I-3
tp397
I0
tp398
I0
s(g78
I0
tp399
I0
s((I16
I37
I18
I4
tp400
I1
tp401
I0
s(g359
I0
tp402
F0.0
s(g80
I0
tp403
F0.0
s((I26
I34
I24
I-1
tp404
I0
tp405
I0
s((I25
I36
I24
I-3
tp406
I0
tp407
F0.0
s(g92
I1
tp408
F0.0
s((I21
I32
I24
I3
tp409
I1
tp410
F0.0
s(g114
I1
tp411
I0
s((I26
I13
I24
I-3
tp412
I0
tp413
I0
s((I30
I25
I16
I3
tp414
I0
tp415
I0
s(g98
I1
tp416
F0.0
s(g104
I0
tp417
I0
s(g108
I0
tp418
I0
s(g116
I1
tp419
I0
s(g18
I1
tp420
I0
s(g122
I0
tp421
I0
s(g24
I1
tp422
I0
s(g28
I0
tp423
I0
s(g126
I0
tp424
F0.0
s(g128
I1
tp425
F0.0
s(g36
I1
tp426
I0
s(g38
I0
tp427
I0
s(g42
I1
tp428
F0.0
s(g138
I0
tp429
I0
s(g145
I1
tp430
F0.0
s(g120
I0
tp431
I0
s(g52
I0
tp432
I0
s(g149
I1
tp433
F0.0
s(g54
I1
tp434
I0
s(g58
I0
tp435
F0.0
s(g161
I1
tp436
F0.0
s(g66
I1
tp437
I0
s(g68
I1
tp438
I0
s((I16
I45
I17
I-2
tp439
I0
tp440
F0.0
s(g70
I0
tp441
F0.0
s(g169
I0
tp442
I0
s(g171
I1
tp443
I0
s(g173
I1
tp444
I0
s(g74
I0
tp445
I0
s(g177
I1
tp446
I0
s(g183
I1
tp447
F0.0
s(g76
I0
tp448
I0
s(g185
I1
tp449
I0
s(g189
I1
tp450
F0.0
s(g82
I0
tp451
I0
s(g196
I0
tp452
F0.0
s(g84
I1
tp453
I0
s(g86
I0
tp454
F0.0
s((I9
I29
I18
I-3
tp455
I0
tp456
I0
s(g88
I1
tp457
I0
s(g90
I1
tp458
F0.0
s(g205
I1
tp459
F0.0
s(g207
I1
tp460
F0.0
s(g209
I0
tp461
I0
s(g96
I0
tp462
F0.0
s(g215
I0
tp463
I0
s(g217
I0
tp464
I0
s(g455
I1
tp465
F0.0
s(g100
I0
tp466
F0.0
s(g102
I0
tp467
F0.0
s(g221
I0
tp468
F0.0
s(g225
I0
tp469
I0
s(g106
I1
tp470
F0.0
s(g227
I0
tp471
F0.0
s((I27
I4
I19
I-3
tp472
I0
tp473
I0
s(g110
I1
tp474
I0
s(g237
I1
tp475
I0
s(g112
I1
tp476
F0.0
s(g241
I0
tp477
F0.0
s(g118
I1
tp478
F0.0
s(g243
I0
tp479
I0
s(g245
I1
tp480
I0
s(g391
I1
tp481
I0
s(g130
I0
tp482
I0
s(g259
I0
tp483
I0
s(g132
I0
tp484
F0.0
s(g134
I0
tp485
F0.0
s(g136
I1
tp486
F0.0
s(g140
I0
tp487
I0
s(g273
I1
tp488
F0.0
s(g142
I0
tp489
I0
s(g147
I1
tp490
I0
s(g165
I1
tp491
I0
s(g275
I0
tp492
F0.0
s(g151
I0
tp493
I0
s(g283
I0
tp494
F0.0
s(g155
I1
tp495
I0
s(g286
I0
tp496
F70.0
s(g288
I0
tp497
I0
s(g157
I0
tp498
I0
s(g159
I0
tp499
I0
s(g269
I1
tp500
I0
s(g296
I0
tp501
F0.0
s(g298
I1
tp502
F0.0
s((I26
I4
I24
I5
tp503
I1
tp504
I0
s(g302
I1
tp505
F0.0
s(g163
I1
tp506
F0.0
s(g304
I1
tp507
F70.0
s(g308
I1
tp508
I0
s(g167
I0
tp509
F0.0
s(g16
I1
tp510
I0
s(g175
I0
tp511
I0
s(g409
I0
tp512
I0
s(g395
I0
tp513
I0
s(g181
I0
tp514
F0.0
s(g317
I0
tp515
I0
s(g187
I1
tp516
I0
s(g320
I0
tp517
I0
s(g322
I0
tp518
F0.0
s(g324
I1
tp519
F0.0
s(g192
I1
tp520
I0
s(g194
I1
tp521
I0
s(g327
I1
tp522
F70.0
s(g198
I0
tp523
I0
s(g201
I0
tp524
F0.0
s(g203
I1
tp525
I0
s(g331
I1
tp526
F0.0
s(g211
I1
tp527
F0.0
s(g334
I0
tp528
I0
s(g336
I1
tp529
I0
s(g213
I1
tp530
I0
s(g219
I1
tp531
I0
s(g341
I0
tp532
F0.0
s(g344
I1
tp533
F0.0
s(g223
I0
tp534
F0.0
s(g347
I1
tp535
I0
s(g503
I0
tp536
F0.0
s(g351
I1
tp537
F0.0
s(g353
I1
tp538
F0.0
s(g472
I1
tp539
F0.0
s(g231
I0
tp540
F0.0
s(g233
I0
tp541
I0
s(g235
I1
tp542
I0
s(g356
I0
tp543
I0
s(g439
I1
tp544
I0
s(g362
I0
tp545
I0
s(g292
I0
tp546
I0
s(g239
I0
tp547
F0.0
s(g364
I0
tp548
F0.0
s(g367
I0
tp549
I0
s(g247
I1
tp550
F0.0
s(g249
I0
tp551
I0
s(g251
I0
tp552
F0.0
s(g370
I0
tp553
F0.0
s(g373
I0
tp554
F0.0
s(g253
I0
tp555
I0
s(g255
I1
tp556
I0
s(g257
I0
tp557
F0.0
s(g375
I1
tp558
F0.0
s(g261
I1
tp559
F0.0
s(g380
I0
tp560
F0.0
s(g263
I0
tp561
I0
s(g265
I1
tp562
I0
s(g124
I1
tp563
I0
s(g382
I0
tp564
F0.0
s(g384
I0
tp565
F0.0
s(g271
I0
tp566
I0
s(g386
I1
tp567
I0
s(g388
I1
tp568
I0
s(g277
I1
tp569
I0
s(g279
I1
tp570
I0
s(g281
I0
tp571
F0.0
s(g153
I0
tp572
I0
s(g393
I0
tp573
I0
s(g397
I1
tp574
F0.0
s(g290
I1
tp575
F0.0
s(g378
I0
tp576
F0.0
s(g400
I0
tp577
F0.0
s(g294
I1
tp578
I0
s(g404
I1
tp579
F0.0
s(g300
I0
tp580
F0.0
s(g406
I1
tp581
I0
s(g306
I1
tp582
F0.0
s(g310
I0
tp583
I0
s(g412
I1
tp584
F0.0
s(g414
I1
tp585
F0.0
s(g312
I1
tp586
I0
s.