ccollections
defaultdict
p0
(c__builtin__
int
p1
tp2
Rp3
((I31
I27
I17
I2
tp4
I0
tp5
I0
s((I20
I41
I17
I-5
tp6
I1
tp7
I0
s((I15
I46
I24
I-2
tp8
I1
tp9
I0
s((I6
I20
I25
I0
tp10
I1
tp11
I0
s((I33
I23
I25
I-1
tp12
I1
tp13
F0.0
s((I29
I12
I25
I-1
tp14
I1
tp15
F0.0
s((I14
I7
I17
I3
tp16
I1
tp17
I0
s((I21
I15
I23
I4
tp18
I0
tp19
I0
s((I29
I28
I27
I0
tp20
I0
tp21
F0.0
s((I16
I10
I17
I0
tp22
I1
tp23
I0
s((I23
I36
I16
I-3
tp24
I1
tp25
F0.0
s((I24
I38
I25
I-3
tp26
I0
tp27
F0.0
s((I29
I12
I19
I0
tp28
I0
tp29
I0
s((I20
I14
I24
I-3
tp30
I1
tp31
F0.0
s((I29
I22
I20
I0
tp32
I1
tp33
F0.0
s((I24
I9
I25
I-1
tp34
I1
tp35
I0
s((I28
I7
I20
I-2
tp36
I0
tp37
F0.0
s((I15
I2
I25
I5
tp38
I1
tp39
I0
s((I28
I30
I25
I-3
tp40
I1
tp41
I0
s((I29
I21
I19
I0
tp42
I0
tp43
F0.0
s((I20
I12
I17
I3
tp44
I1
tp45
I0
s((I27
I2
I23
I4
tp46
I1
tp47
I0
s((I18
I44
I25
I-3
tp48
I0
tp49
I0
s((I21
I37
I23
I-3
tp50
I1
tp51
I0
s((I32
I21
I25
I1
tp52
I1
tp53
F0.0
s((I29
I20
I23
I-4
tp54
I1
tp55
F0.0
s((I28
I33
I25
I-3
tp56
I1
tp57
I0
s((I30
I17
I16
I-1
tp58
I1
tp59
F0.0
s((I24
I10
I25
I-3
tp60
I1
tp61
F0.0
s((I15
I28
I22
I-3
tp62
I0
tp63
I0
s((I25
I11
I20
I5
tp64
I0
tp65
I0
s((I29
I30
I25
I0
tp66
I0
tp67
I0
s((I15
I46
I25
I-2
tp68
I0
tp69
F0.0
s((I15
I28
I26
I-3
tp70
I1
tp71
I0
s((I20
I24
I23
I-3
tp72
I0
tp73
I0
s((I22
I33
I20
I0
tp74
I0
tp75
I0
s((I25
I4
I19
I-3
tp76
I1
tp77
I0
s((I31
I22
I20
I0
tp78
I1
tp79
F0.0
s((I19
I43
I26
I-3
tp80
I0
tp81
I0
s((I31
I31
I17
I-3
tp82
I1
tp83
F0.0
s((I27
I15
I25
I5
tp84
I0
tp85
F0.0
s((I20
I5
I20
I5
tp86
I0
tp87
I0
s((I28
I17
I26
I3
tp88
I1
tp89
I0
s((I23
I10
I16
I5
tp90
I1
tp91
I0
s((I32
I22
I25
I-2
tp92
I1
tp93
F0.0
s((I24
I35
I25
I-3
tp94
I1
tp95
I0
s((I19
I38
I25
I1
tp96
I0
tp97
I0
s((I29
I13
I22
I-2
tp98
I1
tp99
F0.0
s((I13
I31
I26
I3
tp100
I0
tp101
I0
s((I27
I26
I23
I-3
tp102
I1
tp103
I0
s((I17
I35
I23
I4
tp104
I1
tp105
F0.0
s((I27
I21
I23
I2
tp106
I1
tp107
F0.0
s((I28
I25
I20
I-3
tp108
I1
tp109
I0
s(g48
I1
tp110
F0.0
s((I25
I36
I17
I-3
tp111
I0
tp112
I0
s((I23
I19
I25
I5
tp113
I1
tp114
F0.0
s((I29
I3
I23
I2
tp115
I0
tp116
F0.0
s((I31
I28
I24
I-3
tp117
I1
tp118
I0
s((I28
I14
I25
I-3
tp119
I1
tp120
I0
s((I30
I5
I25
I-3
tp121
I1
tp122
I0
s((I19
I37
I23
I1
tp123
I1
tp124
I0
s((I15
I14
I17
I0
tp125
I1
tp126
I0
s((I18
I19
I17
I5
tp127
I1
tp128
I0
s((I16
I13
I25
I5
tp129
I1
tp130
F0.0
s((I16
I44
I23
I0
tp131
I0
tp132
I0
s((I19
I42
I17
I-1
tp133
I1
tp134
F0.0
s((I15
I46
I23
I-3
tp135
I0
tp136
F0.0
s((I23
I15
I26
I-3
tp137
I1
tp138
I0
s(g127
I0
tp139
F0.0
s((I23
I37
I26
I0
tp140
I0
tp141
I0
s((I17
I20
I27
I5
tp142
I1
tp143
F0.0
s((I5
I23
I25
I-3
tp144
I1
tp145
I0
s((I24
I13
I23
I5
tp146
I1
tp147
F0.0
s((I18
I36
I25
I3
tp148
I1
tp149
F0.0
s((I16
I44
I25
I0
tp150
I0
tp151
I0
s((I19
I41
I25
I0
tp152
I1
tp153
F0.0
s((I3
I26
I25
I5
tp154
I0
tp155
I0
s((I26
I34
I20
I0
tp156
I0
tp157
F0.0
s((I27
I8
I26
I-1
tp158
I0
tp159
I0
s((I26
I4
I25
I-4
tp160
I0
tp161
F0.0
s((I28
I9
I25
I5
tp162
I1
tp163
I0
s((I19
I4
I25
I5
tp164
I0
tp165
F0.0
s((I16
I43
I19
I1
tp166
I1
tp167
I0
s((I31
I26
I16
I0
tp168
I1
tp169
I0
s((I15
I43
I16
I1
tp170
I0
tp171
I0
s((I22
I7
I19
I5
tp172
I0
tp173
I0
s((I30
I4
I25
I3
tp174
I0
tp175
F0.0
s((I29
I4
I23
I-1
tp176
I1
tp177
I0
s((I30
I24
I25
I1
tp178
I0
tp179
I0
s((I19
I39
I20
I2
tp180
I0
tp181
I0
s((I32
I12
I25
I2
tp182
I0
tp183
F0.0
s((I18
I41
I23
I-3
tp184
I0
tp185
F0.0
s((I25
I4
I24
I-3
tp186
I0
tp187
I0
s((I30
I19
I25
I4
tp188
I1
tp189
F0.0
s((I18
I33
I23
I-3
tp190
I1
tp191
I0
s((I26
I10
I26
I-3
tp192
I0
tp193
F0.0
s((I26
I31
I23
I0
tp194
I0
tp195
F0.0
s((I20
I38
I16
I-3
tp196
I0
tp197
I0
s((I30
I13
I20
I3
tp198
I0
tp199
I0
s((I32
I15
I25
I-1
tp200
I1
tp201
I0
s((I22
I2
I25
I0
tp202
I0
tp203
F0.0
s((I26
I11
I23
I-3
tp204
I0
tp205
F0.0
s((I24
I12
I26
I0
tp206
I0
tp207
I0
s(g58
I0
tp208
I0
s((I16
I4
I16
I-4
tp209
I1
tp210
I0
s((I20
I40
I25
I-1
tp211
I0
tp212
F0.0
s((I30
I4
I23
I1
tp213
I1
tp214
F0.0
s((I24
I7
I25
I5
tp215
I1
tp216
I0
s((I24
I19
I23
I0
tp217
I0
tp218
F0.0
s((I26
I19
I25
I5
tp219
I1
tp220
I0
s((I32
I10
I22
I-3
tp221
I0
tp222
I0
s((I29
I8
I23
I-3
tp223
I0
tp224
I0
s((I32
I19
I20
I-3
tp225
I1
tp226
F0.0
s((I14
I23
I26
I3
tp227
I1
tp228
F0.0
s((I22
I39
I20
I-3
tp229
I1
tp230
F0.0
s((I22
I37
I25
I1
tp231
I1
tp232
F0.0
s((I33
I25
I25
I0
tp233
I0
tp234
I0
s((I18
I40
I16
I-3
tp235
I1
tp236
F0.0
s((I25
I31
I23
I-3
tp237
I1
tp238
I0
s((I23
I23
I25
I1
tp239
I1
tp240
F0.0
s((I24
I19
I24
I5
tp241
I0
tp242
F0.0
s((I28
I4
I20
I1
tp243
I0
tp244
F0.0
s((I19
I38
I23
I-1
tp245
I1
tp246
F0.0
s((I19
I41
I20
I-1
tp247
I1
tp248
F0.0
s((I31
I4
I25
I3
tp249
I1
tp250
F0.0
s((I16
I13
I17
I-3
tp251
I0
tp252
F0.0
s((I19
I22
I22
I0
tp253
I1
tp254
F0.0
s((I13
I0
I17
I-3
tp255
I0
tp256
F0.0
s((I28
I31
I24
I0
tp257
I1
tp258
F0.0
s((I12
I40
I25
I4
tp259
I0
tp260
I0
s((I22
I40
I26
I-3
tp261
I0
tp262
F0.0
s((I28
I34
I17
I-3
tp263
I1
tp264
F0.0
s((I29
I19
I25
I4
tp265
I1
tp266
I0
s((I25
I36
I20
I-3
tp267
I1
tp268
I0
s((I29
I2
I23
I2
tp269
I0
tp270
I0
s((I12
I40
I26
I4
tp271
I0
tp272
I0
s((I31
I4
I23
I-1
tp273
I1
tp274
I0
s((I31
I22
I25
I3
tp275
I1
tp276
I0
s((I10
I3
I17
I-4
tp277
I0
tp278
I0
s((I23
I30
I25
I-3
tp279
I1
tp280
F0.0
s((I30
I14
I16
I2
tp281
I1
tp282
F0.0
s(g38
I0
tp283
F0.0
s((I23
I21
I23
I-3
tp284
I1
tp285
I0
s((I23
I14
I26
I5
tp286
I0
tp287
I0
s((I29
I28
I26
I0
tp288
I1
tp289
F0.0
s((I24
I8
I24
I0
tp290
I1
tp291
I0
s((I30
I18
I23
I-4
tp292
I1
tp293
F0.0
s((I15
I43
I26
I1
tp294
I0
tp295
F0.0
s((I15
I46
I19
I-2
tp296
I1
tp297
I0
s((I32
I14
I20
I0
tp298
I0
tp299
F0.0
s((I19
I40
I27
I1
tp300
I0
tp301
I0
s((I28
I16
I23
I3
tp302
I0
tp303
F0.0
s((I29
I26
I25
I-3
tp304
I1
tp305
F0.0
s((I22
I38
I25
I-3
tp306
I1
tp307
I0
s((I22
I14
I17
I0
tp308
I0
tp309
F70.0
s(I0
I0
tp310
F0.0
s((I15
I43
I23
I1
tp311
I0
tp312
I0
s((I21
I42
I25
I-4
tp313
I0
tp314
F0.0
s((I13
I12
I17
I2
tp315
I1
tp316
I0
s((I25
I34
I27
I-2
tp317
I0
tp318
I0
s((I6
I36
I22
I5
tp319
I0
tp320
I0
s((I19
I8
I25
I0
tp321
I0
tp322
I0
s((I28
I31
I16
I-1
tp323
I1
tp324
F0.0
s((I20
I0
I25
I3
tp325
I0
tp326
F0.0
s((I32
I16
I20
I0
tp327
I0
tp328
F0.0
s((I25
I1
I25
I5
tp329
I1
tp330
F0.0
s((I23
I21
I17
I5
tp331
I0
tp332
F0.0
s((I16
I43
I24
I1
tp333
I1
tp334
F0.0
s((I30
I4
I22
I3
tp335
I0
tp336
I0
s((I31
I26
I24
I0
tp337
I1
tp338
I0
s((I24
I26
I23
I3
tp339
I1
tp340
F0.0
s((I25
I28
I23
I2
tp341
I1
tp342
F0.0
s((I28
I10
I20
I4
tp343
I1
tp344
I0
s(g36
I1
tp345
I0
s((I29
I19
I20
I3
tp346
I0
tp347
I0
s((I18
I40
I23
I-3
tp348
I0
tp349
I0
s((I26
I20
I25
I-2
tp350
I0
tp351
I0
s((I18
I7
I16
I5
tp352
I1
tp353
I0
s((I22
I27
I25
I-3
tp354
I0
tp355
F0.0
s((I30
I24
I25
I-4
tp356
I1
tp357
I0
s((I26
I9
I27
I-3
tp358
I0
tp359
I0
s((I15
I37
I19
I-3
tp360
I0
tp361
I0
s((I25
I30
I20
I-3
tp362
I1
tp363
I0
s((I25
I32
I25
I-1
tp364
I0
tp365
I0
s(g117
I0
tp366
F0.0
s((I33
I20
I25
I0
tp367
I1
tp368
I0
s((I27
I12
I16
I4
tp369
I1
tp370
I0
s((I24
I5
I25
I-4
tp371
I1
tp372
F0.0
s((I32
I9
I25
I-3
tp373
I0
tp374
F0.0
s((I22
I12
I25
I5
tp375
I0
tp376
I0
s((I15
I43
I25
I1
tp377
I0
tp378
F0.0
s((I17
I41
I24
I-4
tp379
I0
tp380
I0
s((I22
I37
I25
I-1
tp381
I1
tp382
F0.0
s((I30
I11
I23
I3
tp383
I0
tp384
I0
s((I27
I30
I25
I0
tp385
I0
tp386
I0
s((I29
I17
I25
I-3
tp387
I1
tp388
F0.0
s((I20
I39
I24
I-3
tp389
I0
tp390
I0
s((I21
I5
I25
I-3
tp391
I0
tp392
F0.0
s((I16
I44
I25
I-1
tp393
I1
tp394
F0.0
s((I24
I11
I24
I-3
tp395
I0
tp396
F0.0
s((I31
I7
I25
I0
tp397
I0
tp398
I0
s((I16
I20
I26
I-3
tp399
I1
tp400
F0.0
s((I33
I16
I23
I-2
tp401
I0
tp402
F0.0
s((I21
I0
I26
I-3
tp403
I0
tp404
F0.0
s(g166
I0
tp405
F0.0
s((I15
I5
I16
I5
tp406
I1
tp407
F0.0
s((I26
I36
I25
I0
tp408
I0
tp409
I0
s((I15
I46
I27
I-2
tp410
I1
tp411
F0.0
s((I18
I27
I23
I3
tp412
I1
tp413
F0.0
s((I23
I13
I23
I-3
tp414
I1
tp415
F0.0
s((I19
I3
I26
I5
tp416
I1
tp417
F0.0
s((I25
I33
I23
I-3
tp418
I1
tp419
I0
s((I22
I34
I23
I0
tp420
I1
tp421
F0.0
s((I30
I12
I20
I2
tp422
I1
tp423
I0
s((I22
I12
I27
I-3
tp424
I0
tp425
I0
s((I27
I21
I25
I4
tp426
I0
tp427
F0.0
s(g395
I1
tp428
I0
s(g416
I0
tp429
I0
s((I22
I32
I25
I0
tp430
I1
tp431
I0
s((I25
I2
I20
I4
tp432
I0
tp433
I0
s((I23
I6
I24
I3
tp434
I1
tp435
F0.0
s((I25
I16
I25
I-3
tp436
I1
tp437
F0.0
s((I29
I31
I27
I-3
tp438
I0
tp439
F0.0
s((I20
I30
I23
I0
tp440
I1
tp441
I0
s((I28
I21
I24
I4
tp442
I0
tp443
F0.0
s((I31
I16
I20
I-3
tp444
I0
tp445
F0.0
s((I21
I16
I25
I5
tp446
I0
tp447
F0.0
s((I27
I26
I26
I3
tp448
I0
tp449
I0
s((I29
I21
I23
I-3
tp450
I1
tp451
F0.0
s((I20
I18
I26
I-3
tp452
I0
tp453
I0
s((I29
I6
I27
I-3
tp454
I1
tp455
I0
s((I18
I2
I16
I-2
tp456
I1
tp457
I0
s((I21
I32
I19
I-3
tp458
I1
tp459
F0.0
s((I20
I39
I23
I-1
tp460
I1
tp461
I0
s((I24
I6
I26
I3
tp462
I0
tp463
F0.0
s((I31
I2
I25
I0
tp464
I0
tp465
I0
s((I25
I16
I25
I5
tp466
I1
tp467
I0
s((I33
I7
I22
I0
tp468
I1
tp469
F0.0
s((I21
I39
I25
I-4
tp470
I1
tp471
I0
s((I25
I28
I20
I0
tp472
I1
tp473
F0.0
s((I30
I19
I23
I0
tp474
I0
tp475
F0.0
s((I19
I16
I24
I5
tp476
I0
tp477
I0
s((I27
I28
I20
I-2
tp478
I0
tp479
I0
s((I28
I6
I23
I-3
tp480
I0
tp481
F0.0
s((I31
I17
I25
I-4
tp482
I0
tp483
F0.0
s((I15
I43
I22
I1
tp484
I0
tp485
F0.0
s((I27
I2
I24
I-4
tp486
I0
tp487
I0
s((I27
I10
I19
I3
tp488
I1
tp489
I0
s((I25
I34
I26
I-3
tp490
I0
tp491
I0
s((I19
I43
I27
I-3
tp492
I1
tp493
I0
s((I16
I45
I23
I-2
tp494
I0
tp495
F0.0
s((I19
I38
I25
I0
tp496
I1
tp497
I0
s((I18
I35
I19
I-3
tp498
I1
tp499
F0.0
s((I21
I36
I20
I-3
tp500
I1
tp501
I0
s((I29
I28
I25
I-1
tp502
I0
tp503
I0
s((I30
I25
I20
I-3
tp504
I0
tp505
I0
s((I28
I21
I16
I4
tp506
I1
tp507
F0.0
s((I30
I10
I25
I-3
tp508
I0
tp509
I0
s((I14
I47
I17
I-4
tp510
I0
tp511
F0.0
s(g442
I1
tp512
I0
s((I28
I12
I25
I3
tp513
I0
tp514
I0
s((I25
I16
I22
I-3
tp515
I0
tp516
I0
s((I20
I33
I25
I-3
tp517
I0
tp518
I0
s((I27
I9
I23
I-1
tp519
I1
tp520
F0.0
s((I18
I44
I17
I-3
tp521
I0
tp522
F0.0
s((I27
I34
I24
I-3
tp523
I0
tp524
F0.0
s((I19
I41
I23
I-3
tp525
I0
tp526
F0.0
s((I27
I9
I23
I5
tp527
I1
tp528
F0.0
s((I31
I24
I24
I2
tp529
I0
tp530
F0.0
s((I17
I43
I23
I-4
tp531
I1
tp532
I0
s((I30
I17
I25
I4
tp533
I0
tp534
F0.0
s((I26
I24
I23
I-3
tp535
I0
tp536
I0
s((I22
I39
I25
I-1
tp537
I0
tp538
F0.0
s((I16
I26
I26
I0
tp539
I1
tp540
I0
s((I31
I28
I25
I-3
tp541
I0
tp542
F0.0
s(g94
I0
tp543
F0.0
s(g377
I1
tp544
I0
s((I22
I36
I23
I-3
tp545
I0
tp546
I0
s((I15
I34
I26
I1
tp547
I1
tp548
I0
s((I30
I5
I26
I-3
tp549
I0
tp550
I0
s((I23
I36
I25
I0
tp551
I0
tp552
I0
s((I18
I43
I25
I-4
tp553
I1
tp554
I0
s((I28
I24
I17
I5
tp555
I0
tp556
F0.0
s((I14
I37
I25
I-3
tp557
I1
tp558
I0
s((I21
I3
I20
I-3
tp559
I1
tp560
I0
s((I32
I24
I25
I-1
tp561
I0
tp562
F0.0
s((I16
I45
I25
I-2
tp563
I1
tp564
I0
s((I30
I27
I25
I-2
tp565
I1
tp566
F0.0
s((I13
I40
I19
I4
tp567
I1
tp568
F0.0
s((I30
I2
I23
I2
tp569
I0
tp570
I0
s((I25
I12
I26
I-3
tp571
I0
tp572
F0.0
s((I32
I29
I17
I-1
tp573
I1
tp574
I0
s((I22
I12
I25
I-3
tp575
I1
tp576
I0
s((I22
I37
I27
I-3
tp577
I0
tp578
I0
s((I26
I33
I25
I-3
tp579
I0
tp580
F0.0
s((I19
I43
I25
I-3
tp581
I1
tp582
F0.0
s(g34
I0
tp583
F0.0
s((I33
I13
I23
I1
tp584
I1
tp585
I0
s((I25
I34
I25
I-3
tp586
I0
tp587
I0
s((I26
I33
I16
I-3
tp588
I0
tp589
F0.0
s((I15
I46
I20
I-2
tp590
I1
tp591
F0.0
s((I24
I31
I20
I3
tp592
I0
tp593
I0
s((I16
I45
I22
I-2
tp594
I1
tp595
I0
s((I13
I16
I17
I5
tp596
I1
tp597
F0.0
s((I15
I46
I25
I-3
tp598
I0
tp599
F0.0
s(g8
I0
tp600
F0.0
s(g10
I0
tp601
F0.0
s((I22
I19
I22
I-3
tp602
I0
tp603
I0
s(g12
I0
tp604
I0
s(g549
I1
tp605
F0.0
s(g20
I1
tp606
I0
s(g211
I1
tp607
I0
s(g26
I1
tp608
I0
s((I16
I43
I23
I1
tp609
I1
tp610
F0.0
s(g30
I0
tp611
I0
s(g284
I0
tp612
F0.0
s((I22
I38
I17
I-2
tp613
I1
tp614
F0.0
s((I33
I6
I25
I0
tp615
I0
tp616
I0
s((I26
I28
I25
I-3
tp617
I0
tp618
I0
s(g52
I0
tp619
I0
s((I32
I21
I25
I2
tp620
I0
tp621
I0
s((I29
I31
I25
I-2
tp622
I1
tp623
I0
s(g56
I0
tp624
F0.0
s(g62
I1
tp625
F0.0
s((I18
I25
I22
I-3
tp626
I1
tp627
I0
s((I15
I34
I25
I0
tp628
I0
tp629
F0.0
s((I26
I18
I19
I3
tp630
I0
tp631
I0
s(g66
I1
tp632
F0.0
s((I21
I18
I24
I5
tp633
I0
tp634
F0.0
s((I31
I3
I26
I-1
tp635
I0
tp636
F0.0
s((I32
I19
I25
I2
tp637
I1
tp638
I0
s(g72
I1
tp639
F0.0
s(g76
I0
tp640
F0.0
s((I16
I45
I26
I-2
tp641
I1
tp642
F0.0
s(g78
I0
tp643
I0
s((I30
I14
I25
I0
tp644
I1
tp645
I0
s((I29
I28
I25
I1
tp646
I0
tp647
I0
s((I21
I41
I25
I-3
tp648
I0
tp649
I0
s(g84
I1
tp650
I0
s((I30
I6
I23
I-3
tp651
I0
tp652
I0
s((I26
I2
I22
I5
tp653
I0
tp654
I0
s(g92
I0
tp655
I0
s((I29
I15
I19
I-3
tp656
I0
tp657
F0.0
s((I16
I45
I16
I-2
tp658
I1
tp659
I0
s(g653
I1
tp660
F0.0
s((I28
I24
I23
I-1
tp661
I1
tp662
I0
s((I28
I24
I19
I-3
tp663
I1
tp664
I0
s((I24
I29
I19
I-3
tp665
I1
tp666
I0
s(g102
I0
tp667
F0.0
s(g106
I0
tp668
I0
s((I20
I29
I25
I3
tp669
I1
tp670
F0.0
s(g64
I1
tp671
F0.0
s((I13
I31
I25
I3
tp672
I0
tp673
F0.0
s((I29
I19
I16
I-3
tp674
I0
tp675
I0
s((I17
I11
I25
I-3
tp676
I0
tp677
F0.0
s(g16
I0
tp678
F0.0
s((I27
I7
I25
I-3
tp679
I0
tp680
I0
s(g121
I0
tp681
F0.0
s((I29
I31
I26
I-3
tp682
I1
tp683
I0
s((I19
I17
I27
I-3
tp684
I1
tp685
I0
s((I12
I30
I22
I-3
tp686
I1
tp687
F0.0
s(g464
I1
tp688
F0.0
s(g129
I0
tp689
I0
s((I30
I20
I26
I0
tp690
I0
tp691
F0.0
s(g137
I0
tp692
F0.0
s(g18
I1
tp693
F0.0
s(g140
I1
tp694
F0.0
s(g598
I1
tp695
I0
s(g142
I0
tp696
I0
s(g146
I0
tp697
I0
s(g152
I0
tp698
I0
s(g156
I1
tp699
I0
s(g113
I0
tp700
I0
s(g162
I0
tp701
F0.0
s((I12
I40
I22
I4
tp702
I0
tp703
F0.0
s((I31
I26
I25
I-3
tp704
I1
tp705
F0.0
s((I18
I44
I20
I-3
tp706
I1
tp707
I0
s((I30
I28
I16
I-3
tp708
I1
tp709
F0.0
s(g22
I0
tp710
F0.0
s((I15
I46
I17
I-3
tp711
I1
tp712
F0.0
s(g247
I0
tp713
F0.0
s(g174
I1
tp714
I0
s(g32
I0
tp715
I0
s(g178
I1
tp716
F0.0
s(g180
I1
tp717
F0.0
s(g186
I1
tp718
F0.0
s((I24
I7
I20
I5
tp719
I0
tp720
F0.0
s(g190
I0
tp721
F0.0
s(g194
I1
tp722
I0
s((I29
I23
I26
I-3
tp723
I0
tp724
F0.0
s((I22
I22
I27
I5
tp725
I0
tp726
F0.0
s(g144
I0
tp727
F0.0
s((I18
I41
I25
I-3
tp728
I1
tp729
F0.0
s((I9
I4
I17
I5
tp730
I1
tp731
F0.0
s((I25
I27
I19
I0
tp732
I1
tp733
F0.0
s(g4
I1
tp734
F0.0
s(g160
I1
tp735
I0
s(g215
I0
tp736
F0.0
s(g217
I1
tp737
I0
s(g219
I0
tp738
F0.0
s(g613
I0
tp739
I0
s(g14
I0
tp740
I0
s(g96
I1
tp741
F0.0
s(g24
I0
tp742
I0
s(g231
I0
tp743
I0
s((I8
I28
I25
I5
tp744
I0
tp745
F0.0
s(g506
I0
tp746
I0
s(g86
I1
tp747
F0.0
s(g241
I1
tp748
I0
s(g42
I1
tp749
I0
s(g46
I0
tp750
F0.0
s(g249
I0
tp751
I0
s(g50
I0
tp752
F0.0
s(g253
I0
tp753
I0
s(g257
I0
tp754
I0
s(g54
I0
tp755
I0
s(g728
I0
tp756
F0.0
s(g265
I0
tp757
F0.0
s((I27
I25
I27
I3
tp758
I0
tp759
F0.0
s(g60
I0
tp760
I0
s(g480
I1
tp761
I0
s((I23
I7
I25
I2
tp762
I1
tp763
F0.0
s(g269
I1
tp764
F0.0
s(g271
I1
tp765
F0.0
s(g70
I0
tp766
F0.0
s(g277
I1
tp767
F0.0
s((I26
I9
I26
I0
tp768
I1
tp769
I0
s(g279
I0
tp770
I0
s(g74
I1
tp771
F0.0
s(g80
I1
tp772
F0.0
s(g82
I0
tp773
I0
s(g286
I1
tp774
F0.0
s(g288
I0
tp775
I0
s(g496
I0
tp776
F0.0
s((I30
I6
I23
I-1
tp777
I0
tp778
F0.0
s(g88
I0
tp779
F0.0
s(g298
I1
tp780
I0
s(g90
I0
tp781
F0.0
s(g302
I1
tp782
I0
s(g304
I0
tp783
I0
s(g311
I1
tp784
F0.0
s((I23
I17
I23
I2
tp785
I1
tp786
I0
s(g98
I0
tp787
I0
s(g313
I1
tp788
I0
s(g261
I1
tp789
I0
s((I15
I36
I26
I-2
tp790
I1
tp791
I0
s(g317
I1
tp792
F0.0
s(g321
I1
tp793
F0.0
s(g323
I0
tp794
I0
s(g325
I1
tp795
I0
s(g327
I1
tp796
I0
s(g111
I1
tp797
F0.0
s((I30
I23
I16
I2
tp798
I1
tp799
F0.0
s(g331
I1
tp800
I0
s(g115
I1
tp801
I0
s(g337
I0
tp802
F0.0
s(g28
I1
tp803
F0.0
s(g119
I0
tp804
F0.0
s((I4
I18
I25
I3
tp805
I1
tp806
I0
s((I24
I36
I24
I-3
tp807
I1
tp808
F0.0
s(g123
I0
tp809
F0.0
s(g762
I0
tp810
I0
s(g348
I1
tp811
F0.0
s(g131
I1
tp812
F0.0
s(g356
I0
tp813
F0.0
s(g133
I0
tp814
I0
s(g360
I1
tp815
F0.0
s(g135
I1
tp816
I0
s(g364
I1
tp817
F0.0
s(g706
I0
tp818
F0.0
s(g369
I0
tp819
F0.0
s(g777
I1
tp820
I0
s(g375
I1
tp821
F0.0
s(g198
I1
tp822
F0.0
s(g319
I1
tp823
F0.0
s(g805
I0
tp824
F0.0
s(g379
I1
tp825
F0.0
s(g148
I0
tp826
I0
s(g150
I1
tp827
F0.0
s(g206
I1
tp828
F0.0
s(g385
I1
tp829
F0.0
s((I9
I33
I22
I-2
tp830
I1
tp831
F0.0
s(g154
I1
tp832
F0.0
s(g158
I1
tp833
F0.0
s(g391
I1
tp834
I0
s(g164
I1
tp835
I0
s(g393
I0
tp836
I0
s(g399
I0
tp837
I0
s(g401
I1
tp838
I0
s(g403
I1
tp839
I0
s(g176
I0
tp840
F0.0
s(g235
I0
tp841
I0
s(g182
I1
tp842
I0
s(g412
I0
tp843
I0
s(g184
I1
tp844
I0
s(g188
I0
tp845
I0
s((I21
I14
I25
I5
tp846
I1
tp847
F0.0
s(g192
I1
tp848
I0
s(g420
I0
tp849
I0
s(g196
I1
tp850
F0.0
s(g424
I1
tp851
F0.0
s(g200
I0
tp852
F0.0
s(g202
I1
tp853
I0
s(g204
I1
tp854
F0.0
s(g168
I0
tp855
F0.0
s(g430
I0
tp856
F0.0
s(g213
I0
tp857
I0
s(g436
I0
tp858
I0
s(g438
I1
tp859
I0
s(g221
I1
tp860
F0.0
s(g275
I0
tp861
F0.0
s(g440
I0
tp862
F0.0
s(g223
I1
tp863
F0.0
s(g225
I0
tp864
I0
s(g227
I0
tp865
I0
s(g444
I1
tp866
I0
s(g229
I0
tp867
I0
s(g448
I1
tp868
F0.0
s(g233
I1
tp869
F0.0
s((I22
I35
I25
I-3
tp870
I1
tp871
I0
s(g237
I0
tp872
F0.0
s(g563
I0
tp873
F0.0
s(g239
I0
tp874
I0
s(g454
I0
tp875
F0.0
s(g458
I0
tp876
I0
s(g243
I1
tp877
I0
s(g245
I0
tp878
I0
s(g125
I0
tp879
F70.0
s(g251
I1
tp880
I0
s(g466
I0
tp881
F0.0
s(g255
I1
tp882
I0
s(g470
I0
tp883
F0.0
s(g259
I1
tp884
F0.0
s(g263
I0
tp885
I0
s(g472
I0
tp886
I0
s(g474
I1
tp887
I0
s(g476
I1
tp888
F0.0
s(g870
I0
tp889
F0.0
s(g104
I0
tp890
I0
s(g267
I0
tp891
F0.0
s(g521
I1
tp892
I0
s(g273
I0
tp893
F0.0
s(g488
I0
tp894
F0.0
s(g490
I1
tp895
F0.0
s(g494
I1
tp896
I0
s(g744
I1
tp897
I0
s(g498
I0
tp898
I0
s(g281
I0
tp899
I0
s(g502
I1
tp900
F0.0
s(g504
I1
tp901
F0.0
s(g508
I1
tp902
F0.0
s(g513
I1
tp903
F0.0
s(g515
I1
tp904
F0.0
s(g290
I0
tp905
F0.0
s(g294
I1
tp906
I0
s(g519
I0
tp907
I0
s(g296
I0
tp908
F0.0
s(g300
I1
tp909
F0.0
s(g306
I0
tp910
F0.0
s(g785
I0
tp911
F0.0
s(g308
I1
tp912
I0
s(g525
I1
tp913
I0
s(g798
I0
tp914
I0
s(g531
I0
tp915
F0.0
s(g315
I0
tp916
F0.0
s(g533
I1
tp917
I0
s(g535
I1
tp918
F0.0
s(g537
I1
tp919
I0
s(g768
I0
tp920
F0.0
s(g329
I0
tp921
I0
s(g545
I1
tp922
F0.0
s(g333
I0
tp923
I0
s(g389
I1
tp924
F0.0
s(g335
I1
tp925
F0.0
s(g68
I1
tp926
F0.0
s(g658
I0
tp927
F0.0
s(g555
I1
tp928
I0
s(g339
I0
tp929
I0
s(g292
I0
tp930
I0
s(g523
I1
tp931
I0
s(g343
I0
tp932
F0.0
s((I20
I14
I27
I0
tp933
I0
tp934
I0
s(g346
I1
tp935
F0.0
s(g350
I1
tp936
F0.0
s(g406
I0
tp937
I0
s(g352
I0
tp938
F0.0
s(g354
I1
tp939
I0
s(g358
I1
tp940
F0.0
s(g362
I0
tp941
F0.0
s(g367
I0
tp942
F0.0
s(g371
I0
tp943
I0
s(g561
I1
tp944
I0
s(g373
I1
tp945
I0
s(g723
I1
tp946
I0
s(g588
I1
tp947
I0
s(g590
I0
tp948
I0
s(g592
I1
tp949
F0.0
s(g381
I0
tp950
I0
s(g383
I1
tp951
F0.0
s(g596
I0
tp952
I0
s(g44
I0
tp953
I0
s(g387
I0
tp954
I0
s(g108
I0
tp955
F0.0
s(g602
I1
tp956
F0.0
s(g397
I1
tp957
F0.0
s(g758
I1
tp958
I0
s(g609
I0
tp959
I0
s(g408
I1
tp960
F0.0
s(g410
I0
tp961
I0
s(g807
I0
tp962
I0
s(g414
I0
tp963
I0
s(g615
I1
tp964
F0.0
s((I25
I28
I23
I0
tp965
I0
tp966
F0.0
s(g418
I0
tp967
F0.0
s(g830
I0
tp968
I0
s(g422
I0
tp969
F0.0
s(g426
I1
tp970
I0
s(g620
I1
tp971
F0.0
s(g933
I1
tp972
F0.0
s(g622
I0
tp973
F0.0
s(g432
I1
tp974
F0.0
s(g434
I0
tp975
I0
s(g100
I1
tp976
F0.0
s(g594
I0
tp977
F0.0
s(g628
I1
tp978
I0
s(g630
I1
tp979
F0.0
s(g633
I1
tp980
I0
s(g635
I1
tp981
I0
s((I30
I4
I27
I0
tp982
I1
tp983
F0.0
s(g641
I0
tp984
F0.0
s(g446
I1
tp985
I0
s(g644
I0
tp986
F0.0
s(g846
I0
tp987
I0
s(g510
I1
tp988
I0
s(g450
I0
tp989
I0
s(g982
I0
tp990
I0
s(g648
I1
tp991
F0.0
s(g651
I1
tp992
F0.0
s(g452
I1
tp993
F0.0
s(g456
I0
tp994
F0.0
s(g557
I0
tp995
F0.0
s(g460
I0
tp996
F0.0
s(g462
I1
tp997
I0
s(g656
I1
tp998
I0
s(g559
I0
tp999
F0.0
s(g468
I0
tp1000
I0
s(g661
I0
tp1001
F0.0
s(g665
I0
tp1002
F0.0
s(g478
I1
tp1003
F0.0
s(g626
I0
tp1004
F0.0
s(g482
I1
tp1005
I0
s(g669
I0
tp1006
I0
s(g484
I1
tp1007
I0
s(g486
I1
tp1008
F0.0
s(g672
I1
tp1009
I0
s(g676
I1
tp1010
I0
s(g492
I0
tp1011
F0.0
s(g637
I0
tp1012
F0.0
s(g551
I1
tp1013
F0.0
s(g170
I1
tp1014
F0.0
s(g500
I0
tp1015
F0.0
s(g679
I1
tp1016
F0.0
s(g682
I0
tp1017
F0.0
s(g646
I1
tp1018
F0.0
s(g40
I0
tp1019
F0.0
s(g686
I0
tp1020
I0
s(g517
I1
tp1021
F0.0
s(g690
I1
tp1022
I0
s(g172
I1
tp1023
F0.0
s(g341
I0
tp1024
I0
s(g527
I0
tp1025
I0
s(g529
I1
tp1026
I0
s(g663
I0
tp1027
F0.0
s(g539
I0
tp1028
F0.0
s(g541
I1
tp1029
I0
s(g6
I0
tp1030
F0.0
s(g674
I1
tp1031
F0.0
s(g547
I0
tp1032
F0.0
s(g571
I1
tp1033
I0
s(g553
I0
tp1034
F0.0
s(g702
I1
tp1035
I0
s(g704
I0
tp1036
F0.0
s(g209
I0
tp1037
F0.0
s(g790
I0
tp1038
F0.0
s(g708
I0
tp1039
I0
s(g684
I0
tp1040
F0.0
s(g565
I0
tp1041
I0
s(g711
I0
tp1042
I0
s(g567
I0
tp1043
I0
s(g569
I1
tp1044
F0.0
s(g573
I0
tp1045
F0.0
s(g575
I0
tp1046
F0.0
s(g965
I1
tp1047
I0
s(g719
I1
tp1048
I0
s(g577
I1
tp1049
F0.0
s(g579
I1
tp1050
I0
s(g581
I0
tp1051
F0.0
s(g584
I0
tp1052
F0.0
s(g617
I1
tp1053
F0.0
s(g725
I1
tp1054
I0
s(g586
I1
tp1055
F0.0
s(g730
I0
tp1056
I0
s(g732
I0
tp1057
I0
s.